(dp0
S'nfe'
p1
(lp2
I192
aI384
aI576
aI768
aI960
aI1152
aI1344
aI1536
aI1728
aI1920
aI2112
aI2304
aI2496
aI2688
aI2880
aI3072
aI3264
aI3456
aI3648
aI3840
aI4032
aI4224
aI4416
aI4608
aI4800
aI4992
aI5184
aI5376
aI5568
aI5760
aI5952
aI6144
aI6336
aI6528
aI6720
aI6912
aI7104
aI7296
aI7488
aI7680
aI7872
aI8064
aI8256
aI8448
aI8640
aI8832
aI9024
aI9216
aI9408
aI9600
aI9792
aI9984
aI10176
aI10368
aI10560
aI10752
aI10944
aI11136
aI11328
aI11520
aI11712
aI11904
aI12096
aI12288
aI12480
aI12672
aI12864
aI13056
aI13248
aI13440
aI13632
aI13824
aI14016
aI14208
aI14400
aI14592
aI14784
aI14976
aI15168
aI15360
aI15552
aI15744
aI15936
aI16128
aI16320
aI16512
aI16704
aI16896
aI17088
aI17280
aI17472
aI17664
aI17856
aI18048
aI18240
aI18432
aI18624
aI18816
aI19008
aI19200
aI19392
aI19584
aI19776
aI19968
aI20160
aI20352
aI20544
aI20736
aI20928
aI21120
aI21312
aI21504
aI21696
aI21888
aI22080
aI22272
aI22464
aI22656
aI22848
aI23040
aI23232
aI23424
aI23616
aI23808
aI24000
aI24192
aI24384
aI24576
aI24768
aI24960
aI25152
aI25344
aI25536
aI25728
aI25920
aI26112
aI26304
aI26496
aI26688
aI26880
aI27072
aI27264
aI27456
aI27648
aI27840
aI28032
aI28224
aI28416
aI28608
aI28800
aI28992
aI29184
aI29376
aI29568
aI29760
aI29952
aI30144
aI30336
aI30528
aI30720
aI30912
aI31104
aI31296
aI31488
aI31680
aI31872
aI32064
aI32256
aI32448
aI32640
aI32832
aI33024
aI33216
aI33408
aI33600
aI33792
aI33984
aI34176
aI34368
aI34560
aI34752
aI34944
aI35136
aI35328
aI35520
aI35712
aI35904
aI36096
aI36288
aI36480
aI36672
aI36864
aI37056
aI37248
aI37440
aI37632
aI37824
aI38016
aI38208
aI38400
aI38592
aI38784
aI38976
aI39168
aI39360
aI39552
aI39744
aI39936
aI40128
aI40320
aI40512
aI40704
aI40896
aI41088
aI41280
aI41472
aI41664
aI41856
aI42048
aI42240
aI42432
aI42624
aI42816
aI43008
aI43200
aI43392
aI43584
aI43776
aI43968
aI44160
aI44352
aI44544
aI44736
aI44928
aI45120
aI45312
aI45504
aI45696
aI45888
aI46080
aI46272
aI46464
aI46656
aI46848
aI47040
aI47232
aI47424
aI47616
aI47808
aI48000
aI48192
aI48384
aI48576
aI48768
aI48960
aI49152
aI49344
aI49536
aI49728
aI49920
aI50112
aI50304
aI50496
aI50688
aI50880
aI51072
aI51264
aI51456
aI51648
aI51840
aI52032
aI52224
aI52416
aI52608
aI52800
aI52992
aI53184
aI53376
aI53568
aI53760
aI53952
aI54144
aI54336
aI54528
aI54720
aI54912
aI55104
aI55296
aI55488
aI55680
aI55872
aI56064
aI56256
aI56448
aI56640
aI56832
aI57024
aI57216
aI57408
aI57600
aI57792
aI57984
aI58176
aI58368
aI58560
aI58752
aI58944
aI59136
aI59328
aI59520
aI59712
aI59904
aI60096
aI60288
aI60480
aI60672
aI60864
aI61056
aI61248
aI61440
aI61632
aI61824
aI62016
aI62208
aI62400
aI62592
aI62784
aI62976
aI63168
aI63360
aI63552
aI63744
aI63936
aI64128
aI64320
aI64512
aI64704
aI64896
aI65088
aI65280
aI65472
aI65664
aI65856
aI66048
aI66240
aI66432
aI66624
aI66816
aI67008
aI67200
aI67392
aI67584
aI67776
aI67968
aI68160
aI68352
aI68544
aI68736
aI68928
aI69120
aI69312
aI69504
aI69696
aI69888
aI70080
aI70272
aI70464
aI70656
aI70848
aI71040
aI71232
aI71424
aI71616
aI71808
aI72000
aI72192
aI72384
aI72576
aI72768
aI72960
aI73152
aI73344
aI73536
aI73728
aI73920
aI74112
aI74304
aI74496
aI74688
aI74880
aI75072
aI75264
aI75456
aI75648
aI75840
aI76032
aI76224
aI76416
aI76608
aI76800
aI76992
aI77184
aI77376
aI77568
aI77760
aI77952
aI78144
aI78336
aI78528
aI78720
aI78912
aI79104
aI79296
aI79488
aI79680
aI79872
aI80064
aI80256
aI80448
aI80640
aI80832
aI81024
aI81216
aI81408
aI81600
aI81792
aI81984
aI82176
aI82368
aI82560
aI82752
aI82944
aI83136
aI83328
aI83520
aI83712
aI83904
aI84096
aI84288
aI84480
aI84672
aI84864
aI85056
aI85248
aI85440
aI85632
aI85824
aI86016
aI86208
aI86400
aI86592
aI86784
aI86976
aI87168
aI87360
aI87552
aI87744
aI87936
aI88128
aI88320
aI88512
aI88704
aI88896
aI89088
aI89280
aI89472
aI89664
aI89856
aI90048
aI90240
aI90432
aI90624
aI90816
aI91008
aI91200
aI91392
aI91584
aI91776
aI91968
aI92160
aI92352
aI92544
aI92736
aI92928
aI93120
aI93312
aI93504
aI93696
aI93888
aI94080
aI94272
aI94464
aI94656
aI94848
aI95040
aI95232
aI95424
aI95616
aI95808
aI96000
aI96192
aI96384
aI96576
aI96768
aI96960
aI97152
aI97344
aI97536
aI97728
aI97920
aI98112
aI98304
aI98496
aI98688
aI98880
aI99072
aI99264
aI99456
aI99648
aI99840
aI100032
aI100224
aI100416
aI100608
aI100800
aI100992
aI101184
aI101376
aI101568
aI101760
aI101952
aI102144
aI102336
aI102528
aI102720
aI102912
aI103104
aI103296
aI103488
aI103680
aI103872
aI104064
aI104256
aI104448
aI104640
aI104832
aI105024
aI105216
aI105408
aI105600
aI105792
aI105984
aI106176
aI106368
aI106560
aI106752
aI106944
aI107136
aI107328
aI107520
aI107712
aI107904
aI108096
aI108288
aI108480
aI108672
aI108864
aI109056
aI109248
aI109440
aI109632
aI109824
aI110016
aI110208
aI110400
aI110592
aI110784
aI110976
aI111168
aI111360
aI111552
aI111744
aI111936
aI112128
aI112320
aI112512
aI112704
aI112896
aI113088
aI113280
aI113472
aI113664
aI113856
aI114048
aI114240
aI114432
aI114624
aI114816
aI115008
aI115200
aI115392
aI115584
aI115776
aI115968
aI116160
aI116352
aI116544
aI116736
aI116928
aI117120
aI117312
aI117504
aI117696
aI117888
aI118080
aI118272
aI118464
aI118656
aI118848
aI119040
aI119232
aI119424
aI119616
aI119808
aI120000
aI120192
aI120384
aI120576
aI120768
aI120960
aI121152
aI121344
aI121536
aI121728
aI121920
aI122112
aI122304
aI122496
aI122688
aI122880
aI123072
aI123264
aI123456
aI123648
aI123840
aI124032
aI124224
aI124416
aI124608
aI124800
aI124992
aI125184
aI125376
aI125568
aI125760
aI125952
aI126144
aI126336
aI126528
aI126720
aI126912
aI127104
aI127296
aI127488
aI127680
aI127872
aI128064
aI128256
aI128448
aI128640
aI128832
aI129024
aI129216
aI129408
aI129600
aI129792
aI129984
aI130176
aI130368
aI130560
aI130752
aI130944
aI131136
aI131328
aI131520
aI131712
aI131904
aI132096
aI132288
aI132480
aI132672
aI132864
aI133056
aI133248
aI133440
aI133632
aI133824
aI134016
aI134208
aI134400
aI134592
aI134784
aI134976
aI135168
aI135360
aI135552
aI135744
aI135936
aI136128
aI136320
aI136512
aI136704
aI136896
aI137088
aI137280
aI137472
aI137664
aI137856
aI138048
aI138240
aI138432
aI138624
aI138816
aI139008
aI139200
aI139392
aI139584
aI139776
aI139968
aI140160
aI140352
aI140544
aI140736
aI140928
aI141120
aI141312
aI141504
aI141696
aI141888
aI142080
aI142272
aI142464
aI142656
aI142848
aI143040
aI143232
aI143424
aI143616
aI143808
aI144000
aI144192
aI144384
aI144576
aI144768
aI144960
aI145152
aI145344
aI145536
aI145728
aI145920
aI146112
aI146304
aI146496
aI146688
aI146880
aI147072
aI147264
aI147456
aI147648
aI147840
aI148032
aI148224
aI148416
aI148608
aI148800
aI148992
aI149184
aI149376
aI149568
aI149760
aI149952
aI150144
aI150336
aI150528
aI150720
aI150912
aI151104
aI151296
aI151488
aI151680
aI151872
aI152064
aI152256
aI152448
aI152640
aI152832
aI153024
aI153216
aI153408
aI153600
aI153792
aI153984
aI154176
aI154368
aI154560
aI154752
aI154944
aI155136
aI155328
aI155520
aI155712
aI155904
aI156096
aI156288
aI156480
aI156672
aI156864
aI157056
aI157248
aI157440
aI157632
aI157824
aI158016
aI158208
aI158400
aI158592
aI158784
aI158976
aI159168
aI159360
aI159552
aI159744
aI159936
aI160128
aI160320
aI160512
aI160704
aI160896
aI161088
aI161280
aI161472
aI161664
aI161856
aI162048
aI162240
aI162432
aI162624
aI162816
aI163008
aI163200
aI163392
aI163584
aI163776
aI163968
aI164160
aI164352
aI164544
aI164736
aI164928
aI165120
aI165312
aI165504
aI165696
aI165888
aI166080
aI166272
aI166464
aI166656
aI166848
aI167040
aI167232
aI167424
aI167616
aI167808
aI168000
aI168192
aI168384
aI168576
aI168768
aI168960
aI169152
aI169344
aI169536
aI169728
aI169920
aI170112
aI170304
aI170496
aI170688
aI170880
aI171072
aI171264
aI171456
aI171648
aI171840
aI172032
aI172224
aI172416
aI172608
aI172800
aI172992
aI173184
aI173376
aI173568
aI173760
aI173952
aI174144
aI174336
aI174528
aI174720
aI174912
aI175104
aI175296
aI175488
aI175680
aI175872
aI176064
aI176256
aI176448
aI176640
aI176832
aI177024
aI177216
aI177408
aI177600
aI177792
aI177984
aI178176
aI178368
aI178560
aI178752
aI178944
aI179136
aI179328
aI179520
aI179712
aI179904
aI180096
aI180288
aI180480
aI180672
aI180864
aI181056
aI181248
aI181440
aI181632
aI181824
aI182016
aI182208
aI182400
aI182592
aI182784
aI182976
aI183168
aI183360
aI183552
aI183744
aI183936
aI184128
aI184320
aI184512
aI184704
aI184896
aI185088
aI185280
aI185472
aI185664
aI185856
aI186048
aI186240
aI186432
aI186624
aI186816
aI187008
aI187200
aI187392
aI187584
aI187776
aI187968
aI188160
aI188352
aI188544
aI188736
aI188928
aI189120
aI189312
aI189504
aI189696
aI189888
aI190080
aI190272
aI190464
aI190656
aI190848
aI191040
aI191232
aI191424
aI191616
aI191808
aI192000
aI192192
aI192384
aI192576
aI192768
aI192960
aI193152
aI193344
aI193536
aI193728
aI193920
aI194112
aI194304
aI194496
aI194688
aI194880
aI195072
aI195264
aI195456
aI195648
aI195840
aI196032
aI196224
aI196416
aI196608
aI196800
aI196992
aI197184
aI197376
aI197568
aI197760
aI197952
aI198144
aI198336
aI198528
aI198720
aI198912
aI199104
aI199296
aI199488
aI199680
aI199872
aI200064
asS'best_f'
p3
(lp4
cnumpy.core.multiarray
scalar
p5
(cnumpy
dtype
p6
(S'f8'
p7
I0
I1
tp8
Rp9
(I3
S'<'
p10
NNNI-1
I-1
I0
tp11
bS'+\xca=vc\xafv\xc0'
p12
tp13
Rp14
ag5
(g9
S'\xee\xe9\x80\x99\x96Ux\xc0'
p15
tp16
Rp17
ag5
(g9
S'\xb9\xbb\xbf\x8b\xad\x94x\xc0'
p18
tp19
Rp20
ag5
(g9
S'S\xd7\x14\x85\xc8\xc8x\xc0'
p21
tp22
Rp23
ag5
(g9
S'Cxuh\x83Ay\xc0'
p24
tp25
Rp26
ag26
ag26
ag26
ag26
ag26
ag26
ag26
ag26
ag26
ag5
(g9
S'\x9b(\xc3\xb2 jy\xc0'
p27
tp28
Rp29
ag29
ag5
(g9
S'\xcc\xea\xcd5\x95\xd0y\xc0'
p30
tp31
Rp32
ag5
(g9
S'\xd1{\x8d"\x00\xd8y\xc0'
p33
tp34
Rp35
ag5
(g9
S"\x8c\x08'}\x86\xe1y\xc0"
p36
tp37
Rp38
ag38
ag38
ag38
ag5
(g9
S'W\xfc\xac\xd7\xc5\xf4y\xc0'
p39
tp40
Rp41
ag41
ag5
(g9
S'Q\x86\xe2\xd2\x98Iz\xc0'
p42
tp43
Rp44
ag44
ag44
ag44
ag44
ag44
ag44
ag44
ag44
ag44
ag44
ag44
ag5
(g9
S'\xdb\xe16%\xbd_z\xc0'
p45
tp46
Rp47
ag47
ag47
ag47
ag47
ag47
ag47
ag47
ag47
ag47
ag47
ag47
ag47
ag47
ag47
ag47
ag47
ag47
ag47
ag47
ag47
ag47
ag47
ag47
ag47
ag47
ag47
ag47
ag5
(g9
S'\xc8+![=`z\xc0'
p48
tp49
Rp50
ag50
ag50
ag50
ag50
ag50
ag50
ag50
ag50
ag50
ag50
ag50
ag50
ag50
ag50
ag50
ag50
ag5
(g9
S'\xda\x8c\xeer\xaehz\xc0'
p51
tp52
Rp53
ag53
ag53
ag53
ag53
ag53
ag53
ag53
ag53
ag53
ag53
ag53
ag53
ag53
ag53
ag53
ag53
ag53
ag53
ag53
ag53
ag53
ag53
ag53
ag53
ag53
ag53
ag53
ag53
ag53
ag53
ag53
ag53
ag53
ag53
ag53
ag53
ag53
ag53
ag53
ag53
ag53
ag53
ag53
ag53
ag53
ag53
ag53
ag53
ag53
ag53
ag53
ag53
ag53
ag53
ag53
ag53
ag53
ag53
ag53
ag53
ag53
ag53
ag53
ag53
ag53
ag53
ag5
(g9
S'S\xf0\xf7\xe7Bwz\xc0'
p54
tp55
Rp56
ag56
ag56
ag56
ag56
ag56
ag56
ag56
ag56
ag56
ag56
ag56
ag56
ag56
ag56
ag56
ag56
ag56
ag56
ag56
ag56
ag56
ag56
ag56
ag56
ag56
ag56
ag56
ag56
ag56
ag56
ag56
ag56
ag56
ag56
ag56
ag56
ag56
ag56
ag56
ag56
ag56
ag56
ag56
ag56
ag56
ag56
ag56
ag56
ag56
ag56
ag56
ag56
ag56
ag56
ag56
ag56
ag56
ag56
ag56
ag56
ag56
ag56
ag56
ag56
ag56
ag56
ag56
ag56
ag5
(g9
S')\x88s\x06\xa0\x81z\xc0'
p57
tp58
Rp59
ag59
ag59
ag59
ag59
ag59
ag59
ag59
ag59
ag59
ag59
ag59
ag59
ag59
ag59
ag59
ag59
ag59
ag59
ag59
ag59
ag59
ag59
ag59
ag59
ag59
ag59
ag59
ag59
ag59
ag59
ag59
ag59
ag59
ag59
ag59
ag59
ag59
ag59
ag59
ag59
ag59
ag59
ag59
ag59
ag59
ag59
ag59
ag59
ag59
ag59
ag59
ag59
ag59
ag59
ag59
ag59
ag59
ag59
ag59
ag59
ag59
ag59
ag59
ag59
ag59
ag59
ag59
ag59
ag59
ag59
ag59
ag59
ag59
ag59
ag59
ag59
ag59
ag59
ag59
ag59
ag59
ag59
ag59
ag59
ag59
ag59
ag59
ag59
ag59
ag59
ag59
ag59
ag59
ag59
ag59
ag59
ag59
ag59
ag59
ag59
ag59
ag59
ag59
ag59
ag59
ag59
ag59
ag59
ag59
ag59
ag59
ag59
ag59
ag59
ag59
ag59
ag59
ag59
ag59
ag59
ag59
ag59
ag59
ag59
ag59
ag59
ag59
ag59
ag59
ag59
ag59
ag59
ag59
ag59
ag59
ag59
ag59
ag59
ag59
ag59
ag59
ag59
ag59
ag59
ag59
ag59
ag59
ag59
ag59
ag59
ag59
ag59
ag59
ag59
ag59
ag59
ag59
ag59
ag59
ag59
ag59
ag59
ag59
ag59
ag59
ag59
ag59
ag59
ag59
ag59
ag59
ag59
ag59
ag59
ag59
ag59
ag59
ag59
ag59
ag59
ag59
ag59
ag59
ag59
ag59
ag59
ag59
ag59
ag59
ag59
ag59
ag59
ag59
ag59
ag59
ag59
ag59
ag59
ag59
ag59
ag59
ag59
ag59
ag59
ag59
ag59
ag59
ag59
ag59
ag59
ag59
ag59
ag59
ag59
ag59
ag59
ag59
ag59
ag59
ag59
ag59
ag59
ag59
ag59
ag59
ag59
ag59
ag59
ag59
ag59
ag59
ag59
ag59
ag59
ag59
ag59
ag59
ag59
ag59
ag59
ag59
ag59
ag59
ag59
ag59
ag59
ag59
ag59
ag59
ag59
ag59
ag59
ag59
ag59
ag59
ag59
ag59
ag59
ag59
ag59
ag59
ag59
ag59
ag59
ag59
ag59
ag59
ag59
ag59
ag59
ag59
ag59
ag59
ag59
ag59
ag59
ag59
ag59
ag59
ag59
ag59
ag59
ag59
ag59
ag59
ag59
ag59
ag59
ag59
ag59
ag59
ag59
ag59
ag59
ag59
ag59
ag59
ag59
ag59
ag59
ag59
ag59
ag59
ag59
ag59
ag59
ag59
ag59
ag59
ag59
ag59
ag59
ag59
ag59
ag59
ag59
ag59
ag59
ag59
ag59
ag59
ag59
ag59
ag59
ag59
ag59
ag59
ag59
ag59
ag59
ag59
ag59
ag59
ag59
ag59
ag59
ag59
ag59
ag59
ag59
ag59
ag59
ag59
ag59
ag59
ag59
ag59
ag59
ag59
ag59
ag59
ag59
ag59
ag59
ag59
ag59
ag59
ag59
ag59
ag59
ag59
ag59
ag59
ag59
ag59
ag59
ag59
ag59
ag59
ag59
ag59
ag59
ag59
ag59
ag59
ag59
ag59
ag59
ag59
ag59
ag59
ag59
ag59
ag59
ag59
ag59
ag59
ag59
ag59
ag59
ag59
ag59
ag59
ag59
ag59
ag59
ag59
ag59
ag59
ag59
ag59
ag59
ag59
ag59
ag59
ag59
ag59
ag59
ag59
ag59
ag59
ag59
ag59
ag59
ag59
ag59
ag59
ag59
ag59
ag59
ag59
ag59
ag59
ag59
ag59
ag59
ag59
ag59
ag59
ag59
ag59
ag59
ag59
ag59
ag59
ag59
ag59
ag59
ag59
ag59
ag59
ag59
ag59
ag59
ag59
ag59
ag59
ag59
ag59
ag59
ag59
ag59
ag59
ag59
ag59
ag59
ag59
ag59
ag59
ag59
ag59
ag59
ag59
ag59
ag59
ag59
ag59
ag59
ag59
ag59
ag59
ag59
ag59
ag59
ag59
ag59
ag59
ag59
ag59
ag59
ag59
ag59
ag59
ag59
ag59
ag59
ag59
ag59
ag59
ag59
ag59
ag59
ag59
ag59
ag59
ag59
ag59
ag59
ag59
ag59
ag59
ag59
ag59
ag59
ag59
ag59
ag59
ag59
ag59
ag59
ag59
ag59
ag59
ag59
ag59
ag59
ag59
ag59
ag59
ag59
ag59
ag59
ag59
ag59
ag59
ag59
ag59
ag59
ag59
ag59
ag59
ag59
ag59
ag59
ag59
ag59
ag59
ag59
ag59
ag59
ag59
ag59
ag59
ag59
ag59
ag59
ag59
ag59
ag59
ag59
ag59
ag59
ag59
ag59
ag59
ag59
ag59
ag59
ag59
ag59
ag59
ag59
ag59
ag59
ag59
ag59
ag59
ag59
ag59
ag59
ag59
ag59
ag59
ag59
ag59
ag59
ag59
ag59
ag59
ag59
ag59
ag59
ag59
ag59
ag59
ag59
ag59
ag59
ag59
ag59
ag59
ag59
ag59
ag59
ag59
ag59
ag59
ag59
ag59
ag59
ag59
ag59
ag59
ag59
ag59
ag59
ag59
ag59
ag59
ag59
ag59
ag59
ag59
ag59
ag59
ag59
ag59
ag59
ag59
ag59
ag59
ag59
ag59
ag59
ag59
ag59
ag59
ag59
ag59
ag59
ag59
ag59
ag59
ag59
ag59
ag59
ag59
ag59
ag59
ag59
ag59
ag59
ag59
ag59
ag59
ag59
ag59
ag59
ag59
ag59
ag59
ag59
ag59
ag59
ag59
ag59
ag59
ag59
ag59
ag59
ag59
ag59
ag59
ag59
ag59
ag59
ag59
ag59
ag59
ag59
ag59
ag59
ag59
ag59
ag59
ag59
ag59
ag59
ag59
ag59
ag59
ag59
ag59
ag59
ag59
ag59
ag59
ag59
ag59
ag59
ag59
ag59
ag59
ag59
ag59
ag59
ag59
ag59
ag59
ag59
ag59
ag59
ag59
ag59
ag59
ag59
ag59
ag59
ag59
ag59
ag59
ag59
ag59
ag59
ag59
ag59
ag59
ag59
ag59
ag59
ag59
ag59
ag59
ag59
ag59
ag59
ag59
ag59
ag59
ag59
ag59
ag59
ag59
ag59
ag59
ag59
ag59
ag59
ag59
ag59
ag59
ag59
ag59
ag59
ag59
ag59
ag59
ag59
ag59
ag59
ag59
ag59
ag59
ag59
ag59
ag59
ag59
ag59
ag59
ag59
ag59
ag59
ag59
ag59
ag59
ag59
ag59
ag59
ag59
ag59
ag59
ag59
ag59
ag59
ag59
ag59
ag59
ag59
ag59
ag59
ag59
ag59
ag59
ag59
ag59
ag59
ag59
ag59
ag59
ag59
ag59
ag59
ag59
ag59
ag59
ag59
ag59
ag59
ag5
(g9
S'\xdeG\xa1^\xb8\x82z\xc0'
p60
tp61
Rp62
ag62
ag62
ag62
ag62
ag62
ag62
ag62
ag62
ag62
ag62
ag62
ag62
ag62
ag62
ag62
ag62
ag62
ag62
ag62
ag62
ag62
ag62
ag62
ag62
ag62
asS'best_P'
p63
(lp64
(iptreeopt.tree
PTree
p65
(dp66
S'root'
p67
ccopy_reg
_reconstructor
p68
(cptreeopt.tree
Feature
p69
c__builtin__
object
p70
Ntp71
Rp72
(dp73
S'index'
p74
I0
sS'r'
p75
g68
(cptreeopt.tree
Action
p76
g70
Ntp77
Rp78
(dp79
g75
NsS'is_feature'
p80
I00
sS'value'
p81
g5
(g9
S'\x8c\x0b\x08\xc7`\xfc\xd6?'
p82
tp83
Rp84
sS'l'
p85
NsbsS'name'
p86
S'Storage'
p87
sS'threshold'
p88
g5
(g9
S'\xe5n\xe3\xbd\xf0Dh@'
p89
tp90
Rp91
sg85
g68
(g69
g70
Ntp92
Rp93
(dp94
g74
I2
sg75
g68
(g76
g70
Ntp95
Rp96
(dp97
g75
Nsg80
I00
sg81
g5
(g9
S'&\x8dj\xa8\x8c \xd6?'
p98
tp99
Rp100
sg85
Nsbsg86
S'Inflow'
p101
sg88
g5
(g9
S'\xa3}\xb4=\xb4\xaf*@'
p102
tp103
Rp104
sg85
g68
(g76
g70
Ntp105
Rp106
(dp107
g75
Nsg80
I00
sg81
g5
(g9
S'd\xf0\x7f<(3\xcb?'
p108
tp109
Rp110
sg85
Nsbsg80
I01
sbsg80
I01
sbsS'L'
p111
(lp112
g72
ag93
ag106
ag96
ag78
asS'N'
p113
I5
sba(iptreeopt.tree
PTree
p114
(dp115
g67
g68
(g69
g70
Ntp116
Rp117
(dp118
g74
I1
sg75
g68
(g69
g70
Ntp119
Rp120
(dp121
g74
I1
sg75
g68
(g76
g70
Ntp122
Rp123
(dp124
g75
Nsg80
I00
sg81
g5
(g9
S'\x00\x00\x00\x00\x00\x00\x00\x00'
p125
tp126
Rp127
sg85
Nsbsg86
S'Day'
p128
sg88
g5
(g9
S'X\xf7\xdc\xf3\x85\xa4j@'
p129
tp130
Rp131
sg85
g68
(g76
g70
Ntp132
Rp133
(dp134
g75
Nsg80
I00
sg81
g5
(g9
S'?\x00\xac\xc4\xc8^\xe3?'
p135
tp136
Rp137
sg85
Nsbsg80
I01
sbsg86
g128
sg88
g5
(g9
S'\xd1@\x06\x89-\xc2O@'
p138
tp139
Rp140
sg85
g68
(g69
g70
Ntp141
Rp142
(dp143
g74
I2
sg75
g68
(g76
g70
Ntp144
Rp145
(dp146
g75
Nsg80
I00
sg81
g5
(g9
S'\x00\x00\x00\x00\x00\x00\x00\x00'
p147
tp148
Rp149
sg85
Nsbsg86
g101
sg88
g5
(g9
S'\x14\xd5\xd6\xf0\xfd\x05\x16@'
p150
tp151
Rp152
sg85
g68
(g76
g70
Ntp153
Rp154
(dp155
g75
Nsg80
I00
sg81
g5
(g9
S'\xd9c\x07)\xe8\x83\xe7?'
p156
tp157
Rp158
sg85
Nsbsg80
I01
sbsg80
I01
sbsg111
(lp159
g117
ag142
ag154
ag145
ag120
ag133
ag123
asg113
I7
sba(iptreeopt.tree
PTree
p160
(dp161
g67
g68
(g69
g70
Ntp162
Rp163
(dp164
g74
I2
sg75
g68
(g69
g70
Ntp165
Rp166
(dp167
g74
I2
sg75
g68
(g69
g70
Ntp168
Rp169
(dp170
g74
I0
sg75
g68
(g76
g70
Ntp171
Rp172
(dp173
g75
Nsg80
I00
sg81
g5
(g9
S'.\xff\x0b"[\xfd\xe1?'
p174
tp175
Rp176
sg85
Nsbsg86
g87
sg88
g5
(g9
S't\x9d\x9c\r\xd0\x16N@'
p177
tp178
Rp179
sg85
g68
(g76
g70
Ntp180
Rp181
(dp182
g75
Nsg80
I00
sg81
g5
(g9
S'D\xcc\xdd\xfa\x16i\xd0?'
p183
tp184
Rp185
sg85
Nsbsg80
I01
sbsg86
g101
sg88
g5
(g9
S'\xdd?\xc7ag\xf5 @'
p186
tp187
Rp188
sg85
g68
(g76
g70
Ntp189
Rp190
(dp191
g75
Nsg80
I00
sg81
g5
(g9
S'\r\x93%%R\xf1\xc6?'
p192
tp193
Rp194
sg85
Nsbsg80
I01
sbsg86
g101
sg88
g5
(g9
S'T\xd3X\x04U\xda\x11@'
p195
tp196
Rp197
sg85
g68
(g69
g70
Ntp198
Rp199
(dp200
g74
I1
sg75
g68
(g76
g70
Ntp201
Rp202
(dp203
g75
Nsg80
I00
sg81
g5
(g9
S'\x00 7\xb7\x93\x16L?'
p204
tp205
Rp206
sg85
Nsbsg86
g128
sg88
g5
(g9
S'8\xec\x01h\x94Yk@'
p207
tp208
Rp209
sg85
g68
(g76
g70
Ntp210
Rp211
(dp212
g75
Nsg80
I00
sg81
g5
(g9
S"\xdb\xbeR\xf0'T\xe4?"
p213
tp214
Rp215
sg85
Nsbsg80
I01
sbsg80
I01
sbsg111
(lp216
g163
ag199
ag211
ag202
ag166
ag190
ag169
ag181
ag172
asg113
I9
sba(iptreeopt.tree
PTree
p217
(dp218
g67
g68
(g69
g70
Ntp219
Rp220
(dp221
g74
I2
sg75
g68
(g69
g70
Ntp222
Rp223
(dp224
g74
I1
sg75
g68
(g76
g70
Ntp225
Rp226
(dp227
g75
Nsg80
I00
sg81
g5
(g9
S'^\xd9\x0e\xad\xfd\xea\xd9?'
p228
tp229
Rp230
sg85
Nsbsg86
g128
sg88
g5
(g9
S'\xc6\xcfw\xd8\xd6Vc@'
p231
tp232
Rp233
sg85
g68
(g76
g70
Ntp234
Rp235
(dp236
g75
Nsg80
I00
sg81
g5
(g9
S'\x9b&.1\xe0\xda\xea?'
p237
tp238
Rp239
sg85
Nsbsg80
I01
sbsg86
g101
sg88
g5
(g9
S'\x0c\x135\xc0!\x94\x15@'
p240
tp241
Rp242
sg85
g68
(g69
g70
Ntp243
Rp244
(dp245
g74
I1
sg75
g68
(g76
g70
Ntp246
Rp247
(dp248
g75
Nsg80
I00
sg81
g5
(g9
S'fY0&\xc0U\xa7?'
p249
tp250
Rp251
sg85
Nsbsg86
g128
sg88
g5
(g9
S'\x90\xaa\xf5\xb7h+i@'
p252
tp253
Rp254
sg85
g68
(g76
g70
Ntp255
Rp256
(dp257
g75
Nsg80
I00
sg81
g5
(g9
S'\xdd!rM%\x86\xe6?'
p258
tp259
Rp260
sg85
Nsbsg80
I01
sbsg80
I01
sbsg111
(lp261
g220
ag244
ag256
ag247
ag223
ag235
ag226
asg113
I7
sba(iptreeopt.tree
PTree
p262
(dp263
g67
g68
(g69
g70
Ntp264
Rp265
(dp266
g74
I2
sg75
g68
(g69
g70
Ntp267
Rp268
(dp269
g74
I2
sg75
g68
(g69
g70
Ntp270
Rp271
(dp272
g74
I1
sg75
g68
(g76
g70
Ntp273
Rp274
(dp275
g75
Nsg80
I00
sg81
g5
(g9
S'vz\x9c\xe5su\xba?'
p276
tp277
Rp278
sg85
Nsbsg86
g128
sg88
g5
(g9
S'V\xfdaLf\x9a`@'
p279
tp280
Rp281
sg85
g68
(g76
g70
Ntp282
Rp283
(dp284
g75
Nsg80
I00
sg81
g5
(g9
S'bnK\xe8\x8f\xcc\xe7?'
p285
tp286
Rp287
sg85
Nsbsg80
I01
sbsg86
g101
sg88
g5
(g9
S'\xa5y\xdfG\x8d\xc4\x1b@'
p288
tp289
Rp290
sg85
g68
(g76
g70
Ntp291
Rp292
(dp293
g75
Nsg80
I00
sg81
g5
(g9
S'\xf2Zc\x08\xeb-\xd5?'
p294
tp295
Rp296
sg85
Nsbsg80
I01
sbsg86
g101
sg88
g5
(g9
S'\xachX\xba\xa2\xe8\t@'
p297
tp298
Rp299
sg85
g68
(g69
g70
Ntp300
Rp301
(dp302
g74
I1
sg75
g68
(g76
g70
Ntp303
Rp304
(dp305
g75
Nsg80
I00
sg81
g5
(g9
S'\x8bvf\x1f\x0b\xf6\xae?'
p306
tp307
Rp308
sg85
Nsbsg86
g128
sg88
g5
(g9
S'\x06\x0f\x19\x98"\xbdh@'
p309
tp310
Rp311
sg85
g68
(g76
g70
Ntp312
Rp313
(dp314
g75
Nsg80
I00
sg81
g5
(g9
S"\xa7\xfe\xcc\x0b'\xc4\xe8?"
p315
tp316
Rp317
sg85
Nsbsg80
I01
sbsg80
I01
sbsg111
(lp318
g265
ag301
ag313
ag304
ag268
ag292
ag271
ag283
ag274
asg113
I9
sbag262
ag262
ag262
ag262
ag262
ag262
ag262
ag262
ag262
a(iptreeopt.tree
PTree
p319
(dp320
g67
g68
(g69
g70
Ntp321
Rp322
(dp323
g74
I2
sg75
g68
(g69
g70
Ntp324
Rp325
(dp326
g74
I2
sg75
g68
(g69
g70
Ntp327
Rp328
(dp329
g74
I1
sg75
g68
(g76
g70
Ntp330
Rp331
(dp332
g75
Nsg80
I00
sg81
g5
(g9
S"'n\xa9\xec\x94\xc8\xd1?"
p333
tp334
Rp335
sg85
Nsbsg86
g128
sg88
g5
(g9
S'\x19\xd7\xc6\x9eh\xa2t@'
p336
tp337
Rp338
sg85
g68
(g76
g70
Ntp339
Rp340
(dp341
g75
Nsg80
I00
sg81
g5
(g9
S'\xa9$\x11\xddQ^\xee?'
p342
tp343
Rp344
sg85
Nsbsg80
I01
sbsg86
g101
sg88
g5
(g9
S'\xdc\xbaz\xb0&\x1a$@'
p345
tp346
Rp347
sg85
g68
(g76
g70
Ntp348
Rp349
(dp350
g75
Nsg80
I00
sg81
g5
(g9
S'\xc9\r\x1d\x8cEa\xe3?'
p351
tp352
Rp353
sg85
Nsbsg80
I01
sbsg86
g101
sg88
g5
(g9
S'\x00\x00\x00\x00\x00\x00\x08@'
p354
tp355
Rp356
sg85
g68
(g69
g70
Ntp357
Rp358
(dp359
g74
I1
sg75
g68
(g76
g70
Ntp360
Rp361
(dp362
g75
Nsg80
I00
sg81
g5
(g9
S'\xa8\xa3I\x92q5m?'
p363
tp364
Rp365
sg85
Nsbsg86
g128
sg88
g5
(g9
S'W\x15Z*\x02\xabi@'
p366
tp367
Rp368
sg85
g68
(g76
g70
Ntp369
Rp370
(dp371
g75
Nsg80
I00
sg81
g5
(g9
S'RVq[\x7f\xa9\xe5?'
p372
tp373
Rp374
sg85
Nsbsg80
I01
sbsg80
I01
sbsg111
(lp375
g322
ag358
ag370
ag361
ag325
ag349
ag328
ag340
ag331
asg113
I9
sbag319
a(iptreeopt.tree
PTree
p376
(dp377
g67
g68
(g69
g70
Ntp378
Rp379
(dp380
g74
I2
sg75
g68
(g69
g70
Ntp381
Rp382
(dp383
g74
I2
sg75
g68
(g69
g70
Ntp384
Rp385
(dp386
g74
I1
sg75
g68
(g76
g70
Ntp387
Rp388
(dp389
g75
Nsg80
I00
sg81
g5
(g9
S'H\xcb\x1f<S\x08\xc4?'
p390
tp391
Rp392
sg85
Nsbsg86
g128
sg88
g5
(g9
S'\x8e\xe9+\xc4?\x9fu@'
p393
tp394
Rp395
sg85
g68
(g76
g70
Ntp396
Rp397
(dp398
g75
Nsg80
I00
sg81
g5
(g9
S'\xf4=R\xf0\xf0M\xe8?'
p399
tp400
Rp401
sg85
Nsbsg80
I01
sbsg86
g101
sg88
g5
(g9
S'(\x99\xdc\xf9\x0c\xb1#@'
p402
tp403
Rp404
sg85
g68
(g76
g70
Ntp405
Rp406
(dp407
g75
Nsg80
I00
sg81
g5
(g9
S'H7R\x11\x95\xf3\xe8?'
p408
tp409
Rp410
sg85
Nsbsg80
I01
sbsg86
g101
sg88
g5
(g9
S'\x00\x00\x00\x00\x00\x00\x08@'
p411
tp412
Rp413
sg85
g68
(g69
g70
Ntp414
Rp415
(dp416
g74
I1
sg75
g68
(g76
g70
Ntp417
Rp418
(dp419
g75
Nsg80
I00
sg81
g5
(g9
S'\x00\x00\x00\x00\x00\x00\x00\x00'
p420
tp421
Rp422
sg85
Nsbsg86
g128
sg88
g5
(g9
S'\xcfKq\xbcg\xe4g@'
p423
tp424
Rp425
sg85
g68
(g76
g70
Ntp426
Rp427
(dp428
g75
Nsg80
I00
sg81
g5
(g9
S'\xab\x01k\r0\x95\xe9?'
p429
tp430
Rp431
sg85
Nsbsg80
I01
sbsg80
I01
sbsg111
(lp432
g379
ag415
ag427
ag418
ag382
ag406
ag385
ag397
ag388
asg113
I9
sba(iptreeopt.tree
PTree
p433
(dp434
g67
g68
(g69
g70
Ntp435
Rp436
(dp437
g74
I2
sg75
g68
(g69
g70
Ntp438
Rp439
(dp440
g74
I2
sg75
g68
(g69
g70
Ntp441
Rp442
(dp443
g74
I1
sg75
g68
(g76
g70
Ntp444
Rp445
(dp446
g75
Nsg80
I00
sg81
g5
(g9
S'v\xc1\xbf\x8d\x80L\xb4?'
p447
tp448
Rp449
sg85
Nsbsg86
g128
sg88
g5
(g9
S'\xa1\xff\xda\x9f?$s@'
p450
tp451
Rp452
sg85
g68
(g76
g70
Ntp453
Rp454
(dp455
g75
Nsg80
I00
sg81
g5
(g9
S'\xf4=R\xf0\xf0M\xe8?'
p456
tp457
Rp458
sg85
Nsbsg80
I01
sbsg86
g101
sg88
g5
(g9
S'\xc61r0=\x17"@'
p459
tp460
Rp461
sg85
g68
(g76
g70
Ntp462
Rp463
(dp464
g75
Nsg80
I00
sg81
g5
(g9
S'?=5HbU\xeb?'
p465
tp466
Rp467
sg85
Nsbsg80
I01
sbsg86
g101
sg88
g5
(g9
S'\x16d\r\x0e\xf6\xda\t@'
p468
tp469
Rp470
sg85
g68
(g69
g70
Ntp471
Rp472
(dp473
g74
I1
sg75
g68
(g76
g70
Ntp474
Rp475
(dp476
g75
Nsg80
I00
sg81
g5
(g9
S'\x00\x00\x00\x00\x00\x00\x00\x00'
p477
tp478
Rp479
sg85
Nsbsg86
g128
sg88
g5
(g9
S'\xb63\x03\x97\x7f,h@'
p480
tp481
Rp482
sg85
g68
(g76
g70
Ntp483
Rp484
(dp485
g75
Nsg80
I00
sg81
g5
(g9
S'\x9dg\\\x9c\xd0j\xe9?'
p486
tp487
Rp488
sg85
Nsbsg80
I01
sbsg80
I01
sbsg111
(lp489
g436
ag472
ag484
ag475
ag439
ag463
ag442
ag454
ag445
asg113
I9
sba(iptreeopt.tree
PTree
p490
(dp491
g67
g68
(g69
g70
Ntp492
Rp493
(dp494
g74
I2
sg75
g68
(g69
g70
Ntp495
Rp496
(dp497
g74
I2
sg75
g68
(g69
g70
Ntp498
Rp499
(dp500
g74
I1
sg75
g68
(g76
g70
Ntp501
Rp502
(dp503
g75
Nsg80
I00
sg81
g5
(g9
S'\xe4\x91.\xb5\xe4\xa2\xd1?'
p504
tp505
Rp506
sg85
Nsbsg86
g128
sg88
g5
(g9
S'gz\x1f\x17\x08\x16t@'
p507
tp508
Rp509
sg85
g68
(g76
g70
Ntp510
Rp511
(dp512
g75
Nsg80
I00
sg81
g5
(g9
S'\xa3\xda+\xa6\xff\xc7\xec?'
p513
tp514
Rp515
sg85
Nsbsg80
I01
sbsg86
g101
sg88
g5
(g9
S'\x07u\x12Z\x03R(@'
p516
tp517
Rp518
sg85
g68
(g76
g70
Ntp519
Rp520
(dp521
g75
Nsg80
I00
sg81
g5
(g9
S'w\xa6@\xb7">\xe8?'
p522
tp523
Rp524
sg85
Nsbsg80
I01
sbsg86
g101
sg88
g5
(g9
S'\x00\x00\x00\x00\x00\x00\x08@'
p525
tp526
Rp527
sg85
g68
(g69
g70
Ntp528
Rp529
(dp530
g74
I1
sg75
g68
(g76
g70
Ntp531
Rp532
(dp533
g75
Nsg80
I00
sg81
g5
(g9
S'vEB\xe5\x92\xd6\xa9?'
p534
tp535
Rp536
sg85
Nsbsg86
g128
sg88
g5
(g9
S'C\xb9\xd6\xd7\xdamj@'
p537
tp538
Rp539
sg85
g68
(g76
g70
Ntp540
Rp541
(dp542
g75
Nsg80
I00
sg81
g5
(g9
S'!\xbf\x83\xe6y\xee\xe4?'
p543
tp544
Rp545
sg85
Nsbsg80
I01
sbsg80
I01
sbsg111
(lp546
g493
ag529
ag541
ag532
ag496
ag520
ag499
ag511
ag502
asg113
I9
sbag490
ag490
ag490
a(iptreeopt.tree
PTree
p547
(dp548
g67
g68
(g69
g70
Ntp549
Rp550
(dp551
g74
I2
sg75
g68
(g69
g70
Ntp552
Rp553
(dp554
g74
I2
sg75
g68
(g69
g70
Ntp555
Rp556
(dp557
g74
I1
sg75
g68
(g76
g70
Ntp558
Rp559
(dp560
g75
Nsg80
I00
sg81
g5
(g9
S'\xfc\x93\x05x\xcf\xfb\xe6?'
p561
tp562
Rp563
sg85
Nsbsg86
g128
sg88
g5
(g9
S'\x1c\xa9P|\xb1\x01a@'
p564
tp565
Rp566
sg85
g68
(g76
g70
Ntp567
Rp568
(dp569
g75
Nsg80
I00
sg81
g5
(g9
S'\x00\x00\x00\x00\x00\x00\xf0?'
p570
tp571
Rp572
sg85
Nsbsg80
I01
sbsg86
g101
sg88
g5
(g9
S'\x00\x00\x00\x00\x00\x00\x08@'
p573
tp574
Rp575
sg85
g68
(g76
g70
Ntp576
Rp577
(dp578
g75
Nsg80
I00
sg81
g5
(g9
S'\x15%?\x9cSo\xd8?'
p579
tp580
Rp581
sg85
Nsbsg80
I01
sbsg86
g101
sg88
g5
(g9
S'\x00\x00\x00\x00\x00\x00\x08@'
p582
tp583
Rp584
sg85
g68
(g69
g70
Ntp585
Rp586
(dp587
g74
I1
sg75
g68
(g76
g70
Ntp588
Rp589
(dp590
g75
Nsg80
I00
sg81
g5
(g9
S'\x10SRaZ\xc4\x93?'
p591
tp592
Rp593
sg85
Nsbsg86
g128
sg88
g5
(g9
S'L.n\xad\xc7\xdbj@'
p594
tp595
Rp596
sg85
g68
(g76
g70
Ntp597
Rp598
(dp599
g75
Nsg80
I00
sg81
g5
(g9
S'\xefSY\xe6\xd2:\xe6?'
p600
tp601
Rp602
sg85
Nsbsg80
I01
sbsg80
I01
sbsg111
(lp603
g550
ag586
ag598
ag589
ag553
ag577
ag556
ag568
ag559
asg113
I9
sbag547
a(iptreeopt.tree
PTree
p604
(dp605
g67
g68
(g69
g70
Ntp606
Rp607
(dp608
g74
I2
sg75
g68
(g76
g70
Ntp609
Rp610
(dp611
g75
Nsg80
I00
sg81
g5
(g9
S'\x00\x00\x00\x00\x00\x00\xf0?'
p612
tp613
Rp614
sg85
Nsbsg86
g101
sg88
g5
(g9
S'\x00\x00\x00\x00\x00\x00\x08@'
p615
tp616
Rp617
sg85
g68
(g69
g70
Ntp618
Rp619
(dp620
g74
I1
sg75
g68
(g76
g70
Ntp621
Rp622
(dp623
g75
Nsg80
I00
sg81
g5
(g9
S'c(\xea\xe0\xfez\x90?'
p624
tp625
Rp626
sg85
Nsbsg86
g128
sg88
g5
(g9
S'\xd7\x00V8\x8e\x85i@'
p627
tp628
Rp629
sg85
g68
(g76
g70
Ntp630
Rp631
(dp632
g75
Nsg80
I00
sg81
g5
(g9
S"\xeeH't(\x06\xe7?"
p633
tp634
Rp635
sg85
Nsbsg80
I01
sbsg80
I01
sbsg111
(lp636
g607
ag619
ag631
ag622
ag610
asg113
I5
sbag604
ag604
ag604
ag604
ag604
ag604
ag604
ag604
ag604
ag604
ag604
a(iptreeopt.tree
PTree
p637
(dp638
g67
g68
(g69
g70
Ntp639
Rp640
(dp641
g74
I2
sg75
g68
(g76
g70
Ntp642
Rp643
(dp644
g75
Nsg80
I00
sg81
g5
(g9
S'\xc5\xb1\t\xa9\xa5\x97\xef?'
p645
tp646
Rp647
sg85
Nsbsg86
g101
sg88
g5
(g9
S'\x00\x00\x00\x00\x00\x00\x08@'
p648
tp649
Rp650
sg85
g68
(g69
g70
Ntp651
Rp652
(dp653
g74
I1
sg75
g68
(g76
g70
Ntp654
Rp655
(dp656
g75
Nsg80
I00
sg81
g5
(g9
S'\x00\x00\x00\x00\x00\x00\x00\x00'
p657
tp658
Rp659
sg85
Nsbsg86
g128
sg88
g5
(g9
S'3>\xacn\x7f2j@'
p660
tp661
Rp662
sg85
g68
(g76
g70
Ntp663
Rp664
(dp665
g75
Nsg80
I00
sg81
g5
(g9
S'\x14~\xf3\x06j{\xe7?'
p666
tp667
Rp668
sg85
Nsbsg80
I01
sbsg80
I01
sbsg111
(lp669
g640
ag652
ag664
ag655
ag643
asg113
I5
sbag637
ag637
ag637
ag637
ag637
ag637
ag637
ag637
ag637
ag637
ag637
ag637
ag637
ag637
ag637
ag637
ag637
ag637
ag637
ag637
ag637
ag637
ag637
ag637
ag637
ag637
ag637
a(iptreeopt.tree
PTree
p670
(dp671
g67
g68
(g69
g70
Ntp672
Rp673
(dp674
g74
I2
sg75
g68
(g76
g70
Ntp675
Rp676
(dp677
g75
Nsg80
I00
sg81
g5
(g9
S'\x00\x00\x00\x00\x00\x00\xf0?'
p678
tp679
Rp680
sg85
Nsbsg86
g101
sg88
g5
(g9
S'\x00\x00\x00\x00\x00\x00\x08@'
p681
tp682
Rp683
sg85
g68
(g69
g70
Ntp684
Rp685
(dp686
g74
I1
sg75
g68
(g76
g70
Ntp687
Rp688
(dp689
g75
Nsg80
I00
sg81
g5
(g9
S'\xd0\xe0\x80\xafz\xdbo?'
p690
tp691
Rp692
sg85
Nsbsg86
g128
sg88
g5
(g9
S'\xe1#=\xc6f\\k@'
p693
tp694
Rp695
sg85
g68
(g76
g70
Ntp696
Rp697
(dp698
g75
Nsg80
I00
sg81
g5
(g9
S'z\t\xf9\x93\x97\x1d\xe6?'
p699
tp700
Rp701
sg85
Nsbsg80
I01
sbsg80
I01
sbsg111
(lp702
g673
ag685
ag697
ag688
ag676
asg113
I5
sbag670
ag670
ag670
ag670
ag670
ag670
ag670
ag670
ag670
ag670
ag670
ag670
ag670
ag670
ag670
ag670
a(iptreeopt.tree
PTree
p703
(dp704
g67
g68
(g69
g70
Ntp705
Rp706
(dp707
g74
I2
sg75
g68
(g76
g70
Ntp708
Rp709
(dp710
g75
Nsg80
I00
sg81
g5
(g9
S'\xfeB7\x9fy\x11\xef?'
p711
tp712
Rp713
sg85
Nsbsg86
g101
sg88
g5
(g9
S'\x00\x00\x00\x00\x00\x00\x08@'
p714
tp715
Rp716
sg85
g68
(g69
g70
Ntp717
Rp718
(dp719
g74
I1
sg75
g68
(g76
g70
Ntp720
Rp721
(dp722
g75
Nsg80
I00
sg81
g5
(g9
S'\x00\x00\x00\x00\x00\x00\x00\x00'
p723
tp724
Rp725
sg85
Nsbsg86
g128
sg88
g5
(g9
S'!k\xd5\xce\x0e\x99j@'
p726
tp727
Rp728
sg85
g68
(g76
g70
Ntp729
Rp730
(dp731
g75
Nsg80
I00
sg81
g5
(g9
S'h\xaa9\xb0/9\xe7?'
p732
tp733
Rp734
sg85
Nsbsg80
I01
sbsg80
I01
sbsg111
(lp735
g706
ag718
ag730
ag721
ag709
asg113
I5
sbag703
ag703
ag703
ag703
ag703
ag703
ag703
ag703
ag703
ag703
ag703
ag703
ag703
ag703
ag703
ag703
ag703
ag703
ag703
ag703
ag703
ag703
ag703
ag703
ag703
ag703
ag703
ag703
ag703
ag703
ag703
ag703
ag703
ag703
ag703
ag703
ag703
ag703
ag703
ag703
ag703
ag703
ag703
ag703
ag703
ag703
ag703
ag703
ag703
ag703
ag703
ag703
ag703
ag703
ag703
ag703
ag703
ag703
ag703
ag703
ag703
ag703
ag703
ag703
ag703
ag703
a(iptreeopt.tree
PTree
p736
(dp737
g67
g68
(g69
g70
Ntp738
Rp739
(dp740
g74
I2
sg75
g68
(g76
g70
Ntp741
Rp742
(dp743
g75
Nsg80
I00
sg81
g5
(g9
S'\x00\x00\x00\x00\x00\x00\xf0?'
p744
tp745
Rp746
sg85
Nsbsg86
g101
sg88
g5
(g9
S'\x00\x00\x00\x00\x00\x00\x08@'
p747
tp748
Rp749
sg85
g68
(g69
g70
Ntp750
Rp751
(dp752
g74
I1
sg75
g68
(g76
g70
Ntp753
Rp754
(dp755
g75
Nsg80
I00
sg81
g5
(g9
S'\x00\x00\x00\x00\x00\x00\x00\x00'
p756
tp757
Rp758
sg85
Nsbsg86
g128
sg88
g5
(g9
S'!k\xd5\xce\x0e\x99j@'
p759
tp760
Rp761
sg85
g68
(g76
g70
Ntp762
Rp763
(dp764
g75
Nsg80
I00
sg81
g5
(g9
S'h\xaa9\xb0/9\xe7?'
p765
tp766
Rp767
sg85
Nsbsg80
I01
sbsg80
I01
sbsg111
(lp768
g739
ag751
ag763
ag754
ag742
asg113
I5
sbag736
ag736
ag736
ag736
ag736
ag736
ag736
ag736
ag736
ag736
ag736
ag736
ag736
ag736
ag736
ag736
ag736
ag736
ag736
ag736
ag736
ag736
ag736
ag736
ag736
ag736
ag736
ag736
ag736
ag736
ag736
ag736
ag736
ag736
ag736
ag736
ag736
ag736
ag736
ag736
ag736
ag736
ag736
ag736
ag736
ag736
ag736
ag736
ag736
ag736
ag736
ag736
ag736
ag736
ag736
ag736
ag736
ag736
ag736
ag736
ag736
ag736
ag736
ag736
ag736
ag736
ag736
ag736
a(iptreeopt.tree
PTree
p769
(dp770
g67
g68
(g69
g70
Ntp771
Rp772
(dp773
g74
I2
sg75
g68
(g76
g70
Ntp774
Rp775
(dp776
g75
Nsg80
I00
sg81
g5
(g9
S'\x00\x00\x00\x00\x00\x00\xf0?'
p777
tp778
Rp779
sg85
Nsbsg86
g101
sg88
g5
(g9
S'\x00\x00\x00\x00\x00\x00\x08@'
p780
tp781
Rp782
sg85
g68
(g69
g70
Ntp783
Rp784
(dp785
g74
I1
sg75
g68
(g76
g70
Ntp786
Rp787
(dp788
g75
Nsg80
I00
sg81
g5
(g9
S'\x00\x00\x00\x00\x00\x00\x00\x00'
p789
tp790
Rp791
sg85
Nsbsg86
g128
sg88
g5
(g9
S'!k\xd5\xce\x0e\x99j@'
p792
tp793
Rp794
sg85
g68
(g76
g70
Ntp795
Rp796
(dp797
g75
Nsg80
I00
sg81
g5
(g9
S'\xed\xaf\x7f{\x9b}\xe7?'
p798
tp799
Rp800
sg85
Nsbsg80
I01
sbsg80
I01
sbsg111
(lp801
g772
ag784
ag796
ag787
ag775
asg113
I5
sbag769
ag769
ag769
ag769
ag769
ag769
ag769
ag769
ag769
ag769
ag769
ag769
ag769
ag769
ag769
ag769
ag769
ag769
ag769
ag769
ag769
ag769
ag769
ag769
ag769
ag769
ag769
ag769
ag769
ag769
ag769
ag769
ag769
ag769
ag769
ag769
ag769
ag769
ag769
ag769
ag769
ag769
ag769
ag769
ag769
ag769
ag769
ag769
ag769
ag769
ag769
ag769
ag769
ag769
ag769
ag769
ag769
ag769
ag769
ag769
ag769
ag769
ag769
ag769
ag769
ag769
ag769
ag769
ag769
ag769
ag769
ag769
ag769
ag769
ag769
ag769
ag769
ag769
ag769
ag769
ag769
ag769
ag769
ag769
ag769
ag769
ag769
ag769
ag769
ag769
ag769
ag769
ag769
ag769
ag769
ag769
ag769
ag769
ag769
ag769
ag769
ag769
ag769
ag769
ag769
ag769
ag769
ag769
ag769
ag769
ag769
ag769
ag769
ag769
ag769
ag769
ag769
ag769
ag769
ag769
ag769
ag769
ag769
ag769
ag769
ag769
ag769
ag769
ag769
ag769
ag769
ag769
ag769
ag769
ag769
ag769
ag769
ag769
ag769
ag769
ag769
ag769
ag769
ag769
ag769
ag769
ag769
ag769
ag769
ag769
ag769
ag769
ag769
ag769
ag769
ag769
ag769
ag769
ag769
ag769
ag769
ag769
ag769
ag769
ag769
ag769
ag769
ag769
ag769
ag769
ag769
ag769
ag769
ag769
ag769
ag769
ag769
ag769
ag769
ag769
ag769
ag769
ag769
ag769
ag769
ag769
ag769
ag769
ag769
ag769
ag769
ag769
ag769
ag769
ag769
ag769
ag769
ag769
ag769
ag769
ag769
ag769
ag769
ag769
ag769
ag769
ag769
ag769
ag769
ag769
ag769
ag769
ag769
ag769
ag769
ag769
ag769
ag769
ag769
ag769
ag769
ag769
ag769
ag769
ag769
ag769
ag769
ag769
ag769
ag769
ag769
ag769
ag769
ag769
ag769
ag769
ag769
ag769
ag769
ag769
ag769
ag769
ag769
ag769
ag769
ag769
ag769
ag769
ag769
ag769
ag769
ag769
ag769
ag769
ag769
ag769
ag769
ag769
ag769
ag769
ag769
ag769
ag769
ag769
ag769
ag769
ag769
ag769
ag769
ag769
ag769
ag769
ag769
ag769
ag769
ag769
ag769
ag769
ag769
ag769
ag769
ag769
ag769
ag769
ag769
ag769
ag769
ag769
ag769
ag769
ag769
ag769
ag769
ag769
ag769
ag769
ag769
ag769
ag769
ag769
ag769
ag769
ag769
ag769
ag769
ag769
ag769
ag769
ag769
ag769
ag769
ag769
ag769
ag769
ag769
ag769
ag769
ag769
ag769
ag769
ag769
ag769
ag769
ag769
ag769
ag769
ag769
ag769
ag769
ag769
ag769
ag769
ag769
ag769
ag769
ag769
ag769
ag769
ag769
ag769
ag769
ag769
ag769
ag769
ag769
ag769
ag769
ag769
ag769
ag769
ag769
ag769
ag769
ag769
ag769
ag769
ag769
ag769
ag769
ag769
ag769
ag769
ag769
ag769
ag769
ag769
ag769
ag769
ag769
ag769
ag769
ag769
ag769
ag769
ag769
ag769
ag769
ag769
ag769
ag769
ag769
ag769
ag769
ag769
ag769
ag769
ag769
ag769
ag769
ag769
ag769
ag769
ag769
ag769
ag769
ag769
ag769
ag769
ag769
ag769
ag769
ag769
ag769
ag769
ag769
ag769
ag769
ag769
ag769
ag769
ag769
ag769
ag769
ag769
ag769
ag769
ag769
ag769
ag769
ag769
ag769
ag769
ag769
ag769
ag769
ag769
ag769
ag769
ag769
ag769
ag769
ag769
ag769
ag769
ag769
ag769
ag769
ag769
ag769
ag769
ag769
ag769
ag769
ag769
ag769
ag769
ag769
ag769
ag769
ag769
ag769
ag769
ag769
ag769
ag769
ag769
ag769
ag769
ag769
ag769
ag769
ag769
ag769
ag769
ag769
ag769
ag769
ag769
ag769
ag769
ag769
ag769
ag769
ag769
ag769
ag769
ag769
ag769
ag769
ag769
ag769
ag769
ag769
ag769
ag769
ag769
ag769
ag769
ag769
ag769
ag769
ag769
ag769
ag769
ag769
ag769
ag769
ag769
ag769
ag769
ag769
ag769
ag769
ag769
ag769
ag769
ag769
ag769
ag769
ag769
ag769
ag769
ag769
ag769
ag769
ag769
ag769
ag769
ag769
ag769
ag769
ag769
ag769
ag769
ag769
ag769
ag769
ag769
ag769
ag769
ag769
ag769
ag769
ag769
ag769
ag769
ag769
ag769
ag769
ag769
ag769
ag769
ag769
ag769
ag769
ag769
ag769
ag769
ag769
ag769
ag769
ag769
ag769
ag769
ag769
ag769
ag769
ag769
ag769
ag769
ag769
ag769
ag769
ag769
ag769
ag769
ag769
ag769
ag769
ag769
ag769
ag769
ag769
ag769
ag769
ag769
ag769
ag769
ag769
ag769
ag769
ag769
ag769
ag769
ag769
ag769
ag769
ag769
ag769
ag769
ag769
ag769
ag769
ag769
ag769
ag769
ag769
ag769
ag769
ag769
ag769
ag769
ag769
ag769
ag769
ag769
ag769
ag769
ag769
ag769
ag769
ag769
ag769
ag769
ag769
ag769
ag769
ag769
ag769
ag769
ag769
ag769
ag769
ag769
ag769
ag769
ag769
ag769
ag769
ag769
ag769
ag769
ag769
ag769
ag769
ag769
ag769
ag769
ag769
ag769
ag769
ag769
ag769
ag769
ag769
ag769
ag769
ag769
ag769
ag769
ag769
ag769
ag769
ag769
ag769
ag769
ag769
ag769
ag769
ag769
ag769
ag769
ag769
ag769
ag769
ag769
ag769
ag769
ag769
ag769
ag769
ag769
ag769
ag769
ag769
ag769
ag769
ag769
ag769
ag769
ag769
ag769
ag769
ag769
ag769
ag769
ag769
ag769
ag769
ag769
ag769
ag769
ag769
ag769
ag769
ag769
ag769
ag769
ag769
ag769
ag769
ag769
ag769
ag769
ag769
ag769
ag769
ag769
ag769
ag769
ag769
ag769
ag769
ag769
ag769
ag769
ag769
ag769
ag769
ag769
ag769
ag769
ag769
ag769
ag769
ag769
ag769
ag769
ag769
ag769
ag769
ag769
ag769
ag769
ag769
ag769
ag769
ag769
ag769
ag769
ag769
ag769
ag769
ag769
ag769
ag769
ag769
ag769
ag769
ag769
ag769
ag769
ag769
ag769
ag769
ag769
ag769
ag769
ag769
ag769
ag769
ag769
ag769
ag769
ag769
ag769
ag769
ag769
ag769
ag769
ag769
ag769
ag769
ag769
ag769
ag769
ag769
ag769
ag769
ag769
ag769
ag769
ag769
ag769
ag769
ag769
ag769
ag769
ag769
ag769
ag769
ag769
ag769
ag769
ag769
ag769
ag769
ag769
a(iptreeopt.tree
PTree
p802
(dp803
g67
g68
(g69
g70
Ntp804
Rp805
(dp806
g74
I2
sg75
g68
(g76
g70
Ntp807
Rp808
(dp809
g75
Nsg80
I00
sg81
g5
(g9
S'\x00\x00\x00\x00\x00\x00\xf0?'
p810
tp811
Rp812
sg85
Nsbsg86
g101
sg88
g5
(g9
S'\x00\x00\x00\x00\x00\x00\x08@'
p813
tp814
Rp815
sg85
g68
(g69
g70
Ntp816
Rp817
(dp818
g74
I2
sg75
g68
(g76
g70
Ntp819
Rp820
(dp821
g75
Nsg80
I00
sg81
g5
(g9
S'\xaeBw\xf1 \xe1\xee?'
p822
tp823
Rp824
sg85
Nsbsg86
g101
sg88
g5
(g9
S'\x00\x00\x00\x00\x00\x00\x08@'
p825
tp826
Rp827
sg85
g68
(g69
g70
Ntp828
Rp829
(dp830
g74
I1
sg75
g68
(g76
g70
Ntp831
Rp832
(dp833
g75
Nsg80
I00
sg81
g5
(g9
S'\xe0I}\x9by\xc5k?'
p834
tp835
Rp836
sg85
Nsbsg86
g128
sg88
g5
(g9
S'L\x02\xfc@t\xdbj@'
p837
tp838
Rp839
sg85
g68
(g76
g70
Ntp840
Rp841
(dp842
g75
Nsg80
I00
sg81
g5
(g9
S'\x88y\xb0\xe1\xc5#\xe7?'
p843
tp844
Rp845
sg85
Nsbsg80
I01
sbsg80
I01
sbsg80
I01
sbsg111
(lp846
g805
ag817
ag829
ag841
ag832
ag820
ag808
asg113
I7
sbag802
ag802
ag802
ag802
ag802
ag802
ag802
ag802
ag802
ag802
ag802
ag802
ag802
ag802
ag802
ag802
ag802
ag802
ag802
ag802
ag802
ag802
ag802
ag802
ag802
asS'time'
p847
(lp848
I1
aI2
aI3
aI4
aI5
aI6
aI7
aI8
aI9
aI10
aI11
aI12
aI13
aI14
aI15
aI16
aI17
aI18
aI19
aI20
aI21
aI22
aI23
aI24
aI25
aI26
aI27
aI28
aI29
aI30
aI31
aI32
aI33
aI34
aI35
aI36
aI37
aI38
aI39
aI40
aI41
aI42
aI43
aI44
aI45
aI46
aI47
aI48
aI49
aI50
aI51
aI52
aI53
aI54
aI55
aI56
aI57
aI58
aI59
aI60
aI61
aI62
aI63
aI64
aI65
aI66
aI67
aI68
aI69
aI70
aI71
aI72
aI73
aI74
aI75
aI76
aI77
aI78
aI79
aI80
aI81
aI82
aI83
aI84
aI85
aI86
aI87
aI88
aI89
aI90
aI91
aI92
aI93
aI94
aI95
aI96
aI97
aI98
aI99
aI100
aI101
aI102
aI103
aI104
aI105
aI106
aI107
aI108
aI109
aI110
aI111
aI112
aI113
aI114
aI115
aI116
aI117
aI118
aI119
aI120
aI121
aI122
aI123
aI124
aI125
aI126
aI127
aI128
aI129
aI130
aI131
aI132
aI133
aI134
aI135
aI136
aI137
aI138
aI139
aI140
aI141
aI142
aI143
aI144
aI145
aI146
aI147
aI148
aI149
aI150
aI151
aI152
aI153
aI154
aI155
aI156
aI157
aI158
aI159
aI160
aI161
aI162
aI163
aI164
aI165
aI166
aI167
aI168
aI169
aI170
aI171
aI172
aI173
aI174
aI175
aI176
aI177
aI178
aI179
aI180
aI181
aI182
aI182
aI184
aI184
aI185
aI186
aI187
aI188
aI189
aI190
aI191
aI192
aI193
aI194
aI195
aI196
aI197
aI198
aI199
aI200
aI201
aI202
aI203
aI204
aI205
aI206
aI207
aI208
aI209
aI210
aI211
aI212
aI213
aI214
aI215
aI216
aI217
aI218
aI219
aI220
aI221
aI222
aI223
aI224
aI225
aI226
aI227
aI228
aI229
aI230
aI231
aI232
aI233
aI234
aI235
aI236
aI237
aI238
aI239
aI240
aI241
aI242
aI243
aI244
aI245
aI246
aI247
aI248
aI249
aI250
aI251
aI252
aI253
aI254
aI255
aI256
aI257
aI258
aI259
aI260
aI261
aI262
aI263
aI264
aI265
aI266
aI267
aI268
aI269
aI270
aI271
aI272
aI273
aI274
aI275
aI276
aI277
aI278
aI279
aI279
aI280
aI281
aI282
aI283
aI284
aI285
aI286
aI287
aI288
aI289
aI290
aI291
aI292
aI293
aI294
aI295
aI296
aI297
aI298
aI299
aI300
aI301
aI302
aI303
aI304
aI305
aI306
aI307
aI308
aI309
aI310
aI311
aI312
aI313
aI314
aI315
aI316
aI318
aI319
aI320
aI321
aI322
aI323
aI324
aI325
aI326
aI327
aI328
aI329
aI330
aI331
aI332
aI333
aI334
aI335
aI336
aI337
aI339
aI340
aI341
aI342
aI343
aI344
aI345
aI346
aI347
aI348
aI349
aI350
aI351
aI353
aI354
aI355
aI356
aI357
aI358
aI359
aI360
aI361
aI362
aI363
aI364
aI365
aI366
aI367
aI368
aI370
aI371
aI372
aI373
aI374
aI375
aI376
aI377
aI378
aI379
aI380
aI381
aI382
aI383
aI384
aI385
aI386
aI387
aI388
aI390
aI391
aI392
aI393
aI394
aI395
aI396
aI397
aI398
aI399
aI400
aI401
aI402
aI403
aI404
aI405
aI406
aI407
aI408
aI409
aI410
aI411
aI412
aI413
aI414
aI415
aI416
aI417
aI418
aI419
aI421
aI422
aI423
aI424
aI425
aI426
aI427
aI428
aI429
aI430
aI431
aI432
aI433
aI434
aI435
aI436
aI437
aI438
aI439
aI440
aI441
aI442
aI443
aI445
aI446
aI447
aI448
aI449
aI450
aI451
aI452
aI453
aI454
aI455
aI456
aI457
aI458
aI459
aI460
aI461
aI462
aI463
aI464
aI465
aI466
aI467
aI468
aI469
aI470
aI471
aI473
aI474
aI475
aI476
aI477
aI478
aI479
aI480
aI481
aI482
aI483
aI484
aI485
aI486
aI487
aI488
aI489
aI490
aI491
aI492
aI493
aI494
aI495
aI496
aI497
aI498
aI499
aI500
aI501
aI502
aI503
aI505
aI506
aI507
aI508
aI509
aI510
aI511
aI512
aI513
aI514
aI515
aI516
aI517
aI518
aI519
aI520
aI521
aI522
aI523
aI524
aI525
aI526
aI527
aI528
aI529
aI530
aI531
aI532
aI533
aI534
aI535
aI536
aI537
aI538
aI539
aI540
aI541
aI542
aI543
aI544
aI545
aI546
aI547
aI548
aI549
aI550
aI551
aI552
aI553
aI554
aI555
aI556
aI557
aI558
aI559
aI560
aI561
aI562
aI563
aI564
aI566
aI567
aI568
aI569
aI570
aI571
aI572
aI574
aI575
aI576
aI577
aI578
aI579
aI580
aI581
aI582
aI583
aI585
aI586
aI587
aI588
aI589
aI590
aI591
aI592
aI593
aI594
aI595
aI596
aI597
aI598
aI599
aI600
aI601
aI602
aI603
aI604
aI605
aI606
aI607
aI608
aI609
aI610
aI611
aI612
aI613
aI614
aI615
aI616
aI617
aI618
aI619
aI620
aI621
aI622
aI623
aI624
aI625
aI626
aI627
aI628
aI629
aI630
aI631
aI632
aI633
aI634
aI635
aI636
aI637
aI638
aI639
aI640
aI641
aI642
aI643
aI644
aI645
aI646
aI647
aI648
aI649
aI650
aI651
aI652
aI653
aI654
aI655
aI656
aI657
aI658
aI659
aI660
aI660
aI661
aI662
aI663
aI664
aI665
aI666
aI667
aI668
aI669
aI670
aI671
aI672
aI673
aI674
aI675
aI676
aI677
aI678
aI679
aI680
aI681
aI682
aI683
aI684
aI685
aI686
aI687
aI688
aI689
aI690
aI691
aI692
aI693
aI694
aI695
aI696
aI697
aI698
aI699
aI700
aI701
aI702
aI703
aI704
aI705
aI706
aI707
aI708
aI709
aI710
aI711
aI712
aI713
aI714
aI715
aI716
aI717
aI718
aI719
aI720
aI721
aI722
aI723
aI724
aI725
aI726
aI727
aI728
aI729
aI730
aI731
aI732
aI733
aI734
aI735
aI736
aI737
aI738
aI739
aI740
aI741
aI742
aI743
aI744
aI745
aI746
aI747
aI748
aI749
aI750
aI751
aI752
aI753
aI754
aI755
aI756
aI757
aI758
aI759
aI760
aI761
aI762
aI763
aI764
aI765
aI766
aI767
aI768
aI769
aI770
aI771
aI772
aI773
aI774
aI775
aI776
aI777
aI778
aI779
aI780
aI781
aI782
aI783
aI784
aI785
aI786
aI787
aI788
aI789
aI790
aI791
aI792
aI793
aI794
aI795
aI796
aI797
aI798
aI799
aI800
aI801
aI802
aI803
aI804
aI805
aI806
aI807
aI808
aI809
aI810
aI811
aI812
aI813
aI814
aI815
aI816
aI817
aI818
aI819
aI820
aI821
aI822
aI823
aI824
aI825
aI826
aI827
aI828
aI829
aI830
aI831
aI832
aI833
aI834
aI835
aI836
aI837
aI838
aI839
aI840
aI841
aI842
aI843
aI844
aI845
aI846
aI847
aI848
aI849
aI850
aI851
aI852
aI853
aI854
aI855
aI856
aI857
aI858
aI859
aI860
aI861
aI862
aI863
aI864
aI865
aI866
aI867
aI868
aI869
aI870
aI871
aI872
aI873
aI874
aI875
aI876
aI877
aI878
aI879
aI880
aI881
aI882
aI883
aI884
aI885
aI886
aI887
aI888
aI889
aI890
aI891
aI892
aI893
aI894
aI895
aI896
aI897
aI898
aI899
aI900
aI901
aI902
aI903
aI904
aI905
aI906
aI907
aI908
aI909
aI910
aI911
aI912
aI913
aI914
aI915
aI916
aI917
aI918
aI919
aI920
aI921
aI922
aI923
aI924
aI925
aI926
aI927
aI928
aI929
aI930
aI931
aI932
aI933
aI934
aI935
aI936
aI937
aI938
aI939
aI940
aI941
aI942
aI943
aI944
aI945
aI946
aI947
aI948
aI949
aI950
aI951
aI952
aI953
aI954
aI955
aI956
aI957
aI958
aI959
aI960
aI961
aI962
aI963
aI964
aI965
aI966
aI966
aI967
aI968
aI969
aI970
aI971
aI972
aI973
aI974
aI975
aI976
aI977
aI978
aI979
aI980
aI981
aI982
aI983
aI984
aI985
aI986
aI987
aI988
aI989
aI990
aI991
aI992
aI993
aI994
aI995
aI996
aI997
aI998
aI999
aI1000
aI1001
aI1002
aI1003
aI1004
aI1005
aI1006
aI1007
aI1008
aI1009
aI1010
aI1011
aI1012
aI1013
aI1014
aI1015
aI1016
aI1017
aI1018
aI1019
aI1020
aI1021
aI1022
aI1023
aI1024
aI1026
aI1027
aI1028
aI1029
aI1030
aI1031
aI1032
aI1033
aI1034
aI1035
aI1036
aI1037
aI1038
aI1039
aI1040
aI1041
aI1042
aI1043
aI1044
aI1045
aI1046
aI1047
aI1048
aI1049
aI1051
aI1052
as.