(dp0
S'nfe'
p1
(lp2
I192
aI384
aI576
aI768
aI960
aI1152
aI1344
aI1536
aI1728
aI1920
aI2112
aI2304
aI2496
aI2688
aI2880
aI3072
aI3264
aI3456
aI3648
aI3840
aI4032
aI4224
aI4416
aI4608
aI4800
aI4992
aI5184
aI5376
aI5568
aI5760
aI5952
aI6144
aI6336
aI6528
aI6720
aI6912
aI7104
aI7296
aI7488
aI7680
aI7872
aI8064
aI8256
aI8448
aI8640
aI8832
aI9024
aI9216
aI9408
aI9600
aI9792
aI9984
aI10176
aI10368
aI10560
aI10752
aI10944
aI11136
aI11328
aI11520
aI11712
aI11904
aI12096
aI12288
aI12480
aI12672
aI12864
aI13056
aI13248
aI13440
aI13632
aI13824
aI14016
aI14208
aI14400
aI14592
aI14784
aI14976
aI15168
aI15360
aI15552
aI15744
aI15936
aI16128
aI16320
aI16512
aI16704
aI16896
aI17088
aI17280
aI17472
aI17664
aI17856
aI18048
aI18240
aI18432
aI18624
aI18816
aI19008
aI19200
aI19392
aI19584
aI19776
aI19968
aI20160
aI20352
aI20544
aI20736
aI20928
aI21120
aI21312
aI21504
aI21696
aI21888
aI22080
aI22272
aI22464
aI22656
aI22848
aI23040
aI23232
aI23424
aI23616
aI23808
aI24000
aI24192
aI24384
aI24576
aI24768
aI24960
aI25152
aI25344
aI25536
aI25728
aI25920
aI26112
aI26304
aI26496
aI26688
aI26880
aI27072
aI27264
aI27456
aI27648
aI27840
aI28032
aI28224
aI28416
aI28608
aI28800
aI28992
aI29184
aI29376
aI29568
aI29760
aI29952
aI30144
aI30336
aI30528
aI30720
aI30912
aI31104
aI31296
aI31488
aI31680
aI31872
aI32064
aI32256
aI32448
aI32640
aI32832
aI33024
aI33216
aI33408
aI33600
aI33792
aI33984
aI34176
aI34368
aI34560
aI34752
aI34944
aI35136
aI35328
aI35520
aI35712
aI35904
aI36096
aI36288
aI36480
aI36672
aI36864
aI37056
aI37248
aI37440
aI37632
aI37824
aI38016
aI38208
aI38400
aI38592
aI38784
aI38976
aI39168
aI39360
aI39552
aI39744
aI39936
aI40128
aI40320
aI40512
aI40704
aI40896
aI41088
aI41280
aI41472
aI41664
aI41856
aI42048
aI42240
aI42432
aI42624
aI42816
aI43008
aI43200
aI43392
aI43584
aI43776
aI43968
aI44160
aI44352
aI44544
aI44736
aI44928
aI45120
aI45312
aI45504
aI45696
aI45888
aI46080
aI46272
aI46464
aI46656
aI46848
aI47040
aI47232
aI47424
aI47616
aI47808
aI48000
aI48192
aI48384
aI48576
aI48768
aI48960
aI49152
aI49344
aI49536
aI49728
aI49920
aI50112
aI50304
aI50496
aI50688
aI50880
aI51072
aI51264
aI51456
aI51648
aI51840
aI52032
aI52224
aI52416
aI52608
aI52800
aI52992
aI53184
aI53376
aI53568
aI53760
aI53952
aI54144
aI54336
aI54528
aI54720
aI54912
aI55104
aI55296
aI55488
aI55680
aI55872
aI56064
aI56256
aI56448
aI56640
aI56832
aI57024
aI57216
aI57408
aI57600
aI57792
aI57984
aI58176
aI58368
aI58560
aI58752
aI58944
aI59136
aI59328
aI59520
aI59712
aI59904
aI60096
aI60288
aI60480
aI60672
aI60864
aI61056
aI61248
aI61440
aI61632
aI61824
aI62016
aI62208
aI62400
aI62592
aI62784
aI62976
aI63168
aI63360
aI63552
aI63744
aI63936
aI64128
aI64320
aI64512
aI64704
aI64896
aI65088
aI65280
aI65472
aI65664
aI65856
aI66048
aI66240
aI66432
aI66624
aI66816
aI67008
aI67200
aI67392
aI67584
aI67776
aI67968
aI68160
aI68352
aI68544
aI68736
aI68928
aI69120
aI69312
aI69504
aI69696
aI69888
aI70080
aI70272
aI70464
aI70656
aI70848
aI71040
aI71232
aI71424
aI71616
aI71808
aI72000
aI72192
aI72384
aI72576
aI72768
aI72960
aI73152
aI73344
aI73536
aI73728
aI73920
aI74112
aI74304
aI74496
aI74688
aI74880
aI75072
aI75264
aI75456
aI75648
aI75840
aI76032
aI76224
aI76416
aI76608
aI76800
aI76992
aI77184
aI77376
aI77568
aI77760
aI77952
aI78144
aI78336
aI78528
aI78720
aI78912
aI79104
aI79296
aI79488
aI79680
aI79872
aI80064
aI80256
aI80448
aI80640
aI80832
aI81024
aI81216
aI81408
aI81600
aI81792
aI81984
aI82176
aI82368
aI82560
aI82752
aI82944
aI83136
aI83328
aI83520
aI83712
aI83904
aI84096
aI84288
aI84480
aI84672
aI84864
aI85056
aI85248
aI85440
aI85632
aI85824
aI86016
aI86208
aI86400
aI86592
aI86784
aI86976
aI87168
aI87360
aI87552
aI87744
aI87936
aI88128
aI88320
aI88512
aI88704
aI88896
aI89088
aI89280
aI89472
aI89664
aI89856
aI90048
aI90240
aI90432
aI90624
aI90816
aI91008
aI91200
aI91392
aI91584
aI91776
aI91968
aI92160
aI92352
aI92544
aI92736
aI92928
aI93120
aI93312
aI93504
aI93696
aI93888
aI94080
aI94272
aI94464
aI94656
aI94848
aI95040
aI95232
aI95424
aI95616
aI95808
aI96000
aI96192
aI96384
aI96576
aI96768
aI96960
aI97152
aI97344
aI97536
aI97728
aI97920
aI98112
aI98304
aI98496
aI98688
aI98880
aI99072
aI99264
aI99456
aI99648
aI99840
aI100032
aI100224
aI100416
aI100608
aI100800
aI100992
aI101184
aI101376
aI101568
aI101760
aI101952
aI102144
aI102336
aI102528
aI102720
aI102912
aI103104
aI103296
aI103488
aI103680
aI103872
aI104064
aI104256
aI104448
aI104640
aI104832
aI105024
aI105216
aI105408
aI105600
aI105792
aI105984
aI106176
aI106368
aI106560
aI106752
aI106944
aI107136
aI107328
aI107520
aI107712
aI107904
aI108096
aI108288
aI108480
aI108672
aI108864
aI109056
aI109248
aI109440
aI109632
aI109824
aI110016
aI110208
aI110400
aI110592
aI110784
aI110976
aI111168
aI111360
aI111552
aI111744
aI111936
aI112128
aI112320
aI112512
aI112704
aI112896
aI113088
aI113280
aI113472
aI113664
aI113856
aI114048
aI114240
aI114432
aI114624
aI114816
aI115008
aI115200
aI115392
aI115584
aI115776
aI115968
aI116160
aI116352
aI116544
aI116736
aI116928
aI117120
aI117312
aI117504
aI117696
aI117888
aI118080
aI118272
aI118464
aI118656
aI118848
aI119040
aI119232
aI119424
aI119616
aI119808
aI120000
aI120192
aI120384
aI120576
aI120768
aI120960
aI121152
aI121344
aI121536
aI121728
aI121920
aI122112
aI122304
aI122496
aI122688
aI122880
aI123072
aI123264
aI123456
aI123648
aI123840
aI124032
aI124224
aI124416
aI124608
aI124800
aI124992
aI125184
aI125376
aI125568
aI125760
aI125952
aI126144
aI126336
aI126528
aI126720
aI126912
aI127104
aI127296
aI127488
aI127680
aI127872
aI128064
aI128256
aI128448
aI128640
aI128832
aI129024
aI129216
aI129408
aI129600
aI129792
aI129984
aI130176
aI130368
aI130560
aI130752
aI130944
aI131136
aI131328
aI131520
aI131712
aI131904
aI132096
aI132288
aI132480
aI132672
aI132864
aI133056
aI133248
aI133440
aI133632
aI133824
aI134016
aI134208
aI134400
aI134592
aI134784
aI134976
aI135168
aI135360
aI135552
aI135744
aI135936
aI136128
aI136320
aI136512
aI136704
aI136896
aI137088
aI137280
aI137472
aI137664
aI137856
aI138048
aI138240
aI138432
aI138624
aI138816
aI139008
aI139200
aI139392
aI139584
aI139776
aI139968
aI140160
aI140352
aI140544
aI140736
aI140928
aI141120
aI141312
aI141504
aI141696
aI141888
aI142080
aI142272
aI142464
aI142656
aI142848
aI143040
aI143232
aI143424
aI143616
aI143808
aI144000
aI144192
aI144384
aI144576
aI144768
aI144960
aI145152
aI145344
aI145536
aI145728
aI145920
aI146112
aI146304
aI146496
aI146688
aI146880
aI147072
aI147264
aI147456
aI147648
aI147840
aI148032
aI148224
aI148416
aI148608
aI148800
aI148992
aI149184
aI149376
aI149568
aI149760
aI149952
aI150144
aI150336
aI150528
aI150720
aI150912
aI151104
aI151296
aI151488
aI151680
aI151872
aI152064
aI152256
aI152448
aI152640
aI152832
aI153024
aI153216
aI153408
aI153600
aI153792
aI153984
aI154176
aI154368
aI154560
aI154752
aI154944
aI155136
aI155328
aI155520
aI155712
aI155904
aI156096
aI156288
aI156480
aI156672
aI156864
aI157056
aI157248
aI157440
aI157632
aI157824
aI158016
aI158208
aI158400
aI158592
aI158784
aI158976
aI159168
aI159360
aI159552
aI159744
aI159936
aI160128
aI160320
aI160512
aI160704
aI160896
aI161088
aI161280
aI161472
aI161664
aI161856
aI162048
aI162240
aI162432
aI162624
aI162816
aI163008
aI163200
aI163392
aI163584
aI163776
aI163968
aI164160
aI164352
aI164544
aI164736
aI164928
aI165120
aI165312
aI165504
aI165696
aI165888
aI166080
aI166272
aI166464
aI166656
aI166848
aI167040
aI167232
aI167424
aI167616
aI167808
aI168000
aI168192
aI168384
aI168576
aI168768
aI168960
aI169152
aI169344
aI169536
aI169728
aI169920
aI170112
aI170304
aI170496
aI170688
aI170880
aI171072
aI171264
aI171456
aI171648
aI171840
aI172032
aI172224
aI172416
aI172608
aI172800
aI172992
aI173184
aI173376
aI173568
aI173760
aI173952
aI174144
aI174336
aI174528
aI174720
aI174912
aI175104
aI175296
aI175488
aI175680
aI175872
aI176064
aI176256
aI176448
aI176640
aI176832
aI177024
aI177216
aI177408
aI177600
aI177792
aI177984
aI178176
aI178368
aI178560
aI178752
aI178944
aI179136
aI179328
aI179520
aI179712
aI179904
aI180096
aI180288
aI180480
aI180672
aI180864
aI181056
aI181248
aI181440
aI181632
aI181824
aI182016
aI182208
aI182400
aI182592
aI182784
aI182976
aI183168
aI183360
aI183552
aI183744
aI183936
aI184128
aI184320
aI184512
aI184704
aI184896
aI185088
aI185280
aI185472
aI185664
aI185856
aI186048
aI186240
aI186432
aI186624
aI186816
aI187008
aI187200
aI187392
aI187584
aI187776
aI187968
aI188160
aI188352
aI188544
aI188736
aI188928
aI189120
aI189312
aI189504
aI189696
aI189888
aI190080
aI190272
aI190464
aI190656
aI190848
aI191040
aI191232
aI191424
aI191616
aI191808
aI192000
aI192192
aI192384
aI192576
aI192768
aI192960
aI193152
aI193344
aI193536
aI193728
aI193920
aI194112
aI194304
aI194496
aI194688
aI194880
aI195072
aI195264
aI195456
aI195648
aI195840
aI196032
aI196224
aI196416
aI196608
aI196800
aI196992
aI197184
aI197376
aI197568
aI197760
aI197952
aI198144
aI198336
aI198528
aI198720
aI198912
aI199104
aI199296
aI199488
aI199680
aI199872
aI200064
asS'best_f'
p3
(lp4
cnumpy.core.multiarray
scalar
p5
(cnumpy
dtype
p6
(S'f8'
p7
I0
I1
tp8
Rp9
(I3
S'<'
p10
NNNI-1
I-1
I0
tp11
bS'.\xd9\xa27\xbd\xbfx\xc0'
p12
tp13
Rp14
ag14
ag14
ag5
(g9
S'\xa0\xcaWd\xe6+y\xc0'
p15
tp16
Rp17
ag5
(g9
S'\xa6\x0b\x1a\x8d_5y\xc0'
p18
tp19
Rp20
ag5
(g9
S'\xa3\xc9\x85\x9dl\x0cz\xc0'
p21
tp22
Rp23
ag23
ag5
(g9
S'B\x8c\x8e\xe5\xeaVz\xc0'
p24
tp25
Rp26
ag26
ag5
(g9
S'\xef\xcc\x84\x11\xf9\xf6z\xc0'
p27
tp28
Rp29
ag29
ag29
ag29
ag29
ag29
ag29
ag29
ag29
ag29
ag29
ag29
ag29
ag29
ag29
ag29
ag29
ag29
ag29
ag29
ag29
ag29
ag29
ag29
ag29
ag29
ag29
ag5
(g9
S'S\x92\x80\xce\x04\xffz\xc0'
p30
tp31
Rp32
ag5
(g9
S'\xa4\xd5\x1fPz\x02{\xc0'
p33
tp34
Rp35
ag35
ag35
ag35
ag35
ag35
ag35
ag35
ag35
ag35
ag35
ag35
ag35
ag35
ag35
ag35
ag35
ag35
ag35
ag35
ag35
ag35
ag35
ag35
ag5
(g9
S'\x8f\xca\xc1\x83\x1f\x08{\xc0'
p36
tp37
Rp38
ag38
ag38
ag38
ag38
ag38
ag38
ag38
ag38
ag38
ag38
ag38
ag38
ag38
ag5
(g9
S'f\t\xbaJq\x17{\xc0'
p39
tp40
Rp41
ag41
ag41
ag41
ag41
ag41
ag41
ag41
ag5
(g9
S'\x1cgL_s!{\xc0'
p42
tp43
Rp44
ag44
ag44
ag44
ag44
ag44
ag44
ag44
ag44
ag44
ag44
ag44
ag44
ag44
ag44
ag44
ag44
ag44
ag44
ag44
ag44
ag44
ag44
ag44
ag44
ag44
ag44
ag44
ag44
ag44
ag44
ag44
ag44
ag44
ag44
ag44
ag44
ag44
ag44
ag44
ag44
ag44
ag44
ag44
ag44
ag44
ag44
ag44
ag44
ag44
ag44
ag44
ag44
ag44
ag44
ag44
ag44
ag44
ag44
ag44
ag44
ag44
ag44
ag44
ag44
ag44
ag44
ag44
ag44
ag44
ag44
ag44
ag44
ag44
ag44
ag44
ag44
ag44
ag44
ag44
ag44
ag44
ag44
ag44
ag44
ag44
ag44
ag44
ag44
ag44
ag44
ag44
ag44
ag44
ag44
ag44
ag44
ag44
ag44
ag44
ag44
ag44
ag44
ag44
ag44
ag44
ag44
ag44
ag44
ag44
ag44
ag44
ag44
ag44
ag44
ag44
ag44
ag44
ag44
ag44
ag44
ag44
ag44
ag44
ag44
ag44
ag44
ag44
ag44
ag44
ag44
ag44
ag44
ag44
ag44
ag44
ag44
ag44
ag44
ag44
ag44
ag44
ag44
ag44
ag44
ag44
ag44
ag44
ag44
ag44
ag44
ag44
ag44
ag44
ag44
ag44
ag44
ag44
ag44
ag44
ag44
ag44
ag44
ag44
ag44
ag44
ag44
ag44
ag44
ag44
ag44
ag44
ag44
ag44
ag44
ag44
ag44
ag44
ag44
ag44
ag44
ag44
ag44
ag44
ag44
ag44
ag44
ag44
ag44
ag44
ag44
ag44
ag44
ag44
ag44
ag44
ag44
ag44
ag44
ag44
ag44
ag44
ag44
ag44
ag44
ag44
ag44
ag44
ag44
ag44
ag44
ag44
ag44
ag44
ag44
ag44
ag44
ag44
ag44
ag44
ag44
ag44
ag44
ag44
ag44
ag44
ag44
ag44
ag44
ag44
ag44
ag44
ag44
ag44
ag44
ag44
ag44
ag44
ag44
ag44
ag44
ag44
ag44
ag44
ag44
ag44
ag44
ag44
ag44
ag44
ag44
ag44
ag44
ag44
ag44
ag44
ag44
ag44
ag44
ag44
ag44
ag44
ag44
ag44
ag44
ag44
ag44
ag44
ag44
ag44
ag44
ag44
ag44
ag44
ag44
ag44
ag44
ag44
ag44
ag44
ag44
ag44
ag44
ag44
ag44
ag44
ag44
ag44
ag44
ag44
ag44
ag44
ag44
ag44
ag44
ag5
(g9
S'*\xab\xc7\x8d_%{\xc0'
p45
tp46
Rp47
ag47
ag47
ag47
ag47
ag47
ag47
ag47
ag47
ag47
ag47
ag47
ag47
ag47
ag47
ag47
ag47
ag47
ag47
ag47
ag47
ag47
ag47
ag47
ag47
ag47
ag47
ag47
ag47
ag47
ag47
ag47
ag47
ag47
ag47
ag47
ag47
ag47
ag47
ag47
ag47
ag47
ag47
ag47
ag47
ag47
ag47
ag47
ag47
ag47
ag47
ag47
ag47
ag47
ag47
ag47
ag47
ag47
ag47
ag47
ag47
ag47
ag47
ag47
ag47
ag47
ag47
ag47
ag47
ag47
ag47
ag47
ag47
ag47
ag47
ag47
ag47
ag47
ag47
ag47
ag47
ag47
ag47
ag47
ag47
ag47
ag47
ag47
ag47
ag47
ag47
ag47
ag47
ag47
ag47
ag47
ag47
ag47
ag47
ag47
ag47
ag47
ag47
ag47
ag47
ag47
ag47
ag47
ag47
ag47
ag47
ag47
ag47
ag47
ag47
ag47
ag47
ag47
ag47
ag47
ag47
ag47
ag47
ag47
ag47
ag47
ag47
ag47
ag47
ag47
ag47
ag47
ag47
ag47
ag47
ag47
ag47
ag47
ag47
ag47
ag47
ag47
ag47
ag47
ag47
ag47
ag47
ag47
ag47
ag47
ag47
ag47
ag47
ag47
ag47
ag47
ag47
ag47
ag47
ag47
ag47
ag47
ag47
ag47
ag47
ag47
ag47
ag47
ag47
ag47
ag47
ag47
ag47
ag47
ag47
ag47
ag47
ag47
ag47
ag47
ag47
ag47
ag47
ag47
ag47
ag47
ag47
ag47
ag47
ag47
ag47
ag47
ag47
ag47
ag47
ag47
ag47
ag47
ag47
ag47
ag47
ag47
ag47
ag47
ag47
ag47
ag47
ag47
ag47
ag5
(g9
S'\x80\xdcFqm*{\xc0'
p48
tp49
Rp50
ag50
ag50
ag50
ag50
ag50
ag50
ag50
ag50
ag50
ag50
ag50
ag50
ag50
ag50
ag50
ag50
ag50
ag50
ag50
ag50
ag50
ag50
ag50
ag50
ag50
ag50
ag50
ag50
ag50
ag50
ag50
ag50
ag50
ag50
ag50
ag50
ag50
ag50
ag50
ag50
ag50
ag50
ag50
ag50
ag50
ag50
ag50
ag50
ag50
ag50
ag50
ag50
ag50
ag50
ag50
ag50
ag50
ag50
ag50
ag50
ag50
ag50
ag50
ag50
ag50
ag50
ag50
ag50
ag50
ag50
ag50
ag50
ag50
ag50
ag50
ag50
ag50
ag50
ag50
ag50
ag50
ag50
ag50
ag50
ag50
ag50
ag50
ag50
ag50
ag50
ag50
ag50
ag50
ag50
ag50
ag50
ag50
ag50
ag50
ag50
ag50
ag50
ag50
ag50
ag50
ag50
ag50
ag50
ag50
ag50
ag50
ag50
ag50
ag50
ag50
ag50
ag50
ag50
ag50
ag50
ag50
ag50
ag50
ag50
ag50
ag50
ag50
ag50
ag50
ag50
ag50
ag50
ag50
ag50
ag50
ag50
ag50
ag50
ag50
ag50
ag50
ag50
ag50
ag50
ag50
ag50
ag50
ag50
ag50
ag50
ag50
ag50
ag50
ag50
ag50
ag50
ag50
ag50
ag50
ag50
ag50
ag50
ag50
ag50
ag50
ag50
ag50
ag50
ag50
ag50
ag50
ag50
ag50
ag50
ag50
ag50
ag50
ag50
ag50
ag50
ag50
ag50
ag50
ag50
ag50
ag50
ag50
ag50
ag50
ag50
ag50
ag50
ag50
ag50
ag50
ag50
ag50
ag50
ag50
ag50
ag50
ag50
ag50
ag50
ag50
ag50
ag50
ag50
ag50
ag50
ag50
ag50
ag50
ag50
ag50
ag50
ag50
ag50
ag50
ag50
ag50
ag50
ag50
ag50
ag50
ag50
ag50
ag50
ag50
ag50
ag50
ag50
ag50
ag50
ag50
ag50
ag50
ag50
ag50
ag50
ag50
ag50
ag50
ag50
ag50
ag50
ag50
ag50
ag50
ag50
ag50
ag50
ag50
ag50
ag50
ag50
ag50
ag50
ag50
ag50
ag50
ag50
ag50
ag50
ag50
ag50
ag50
ag50
ag50
ag50
ag50
ag50
ag50
ag50
ag50
ag50
ag50
ag50
ag50
ag50
ag50
ag50
ag50
ag5
(g9
S'q15Rh.{\xc0'
p51
tp52
Rp53
ag53
ag53
ag53
ag53
ag53
ag53
ag53
ag53
ag53
ag53
ag53
ag53
ag53
ag53
ag53
ag53
ag53
ag53
ag53
ag53
ag53
ag53
ag53
ag53
ag53
ag53
ag53
ag53
ag53
ag53
ag53
ag53
ag53
ag53
ag53
ag53
ag53
ag53
ag53
ag53
ag53
ag53
ag53
ag53
ag53
ag53
ag53
ag53
ag53
ag53
ag53
ag53
ag53
ag53
ag53
ag53
ag53
ag53
ag53
ag53
ag53
ag53
ag53
ag53
ag53
ag53
ag53
ag53
ag53
ag53
ag53
ag53
ag53
ag53
ag53
ag53
ag53
ag53
ag53
ag53
ag53
ag53
ag53
ag53
ag53
ag53
ag53
ag53
ag53
ag53
ag53
ag53
ag53
ag53
ag53
ag53
ag53
ag53
ag53
ag53
ag53
ag53
ag53
ag53
ag53
ag53
ag53
ag53
ag53
ag53
ag53
ag53
ag53
ag53
ag53
ag53
ag53
ag53
ag53
ag53
ag53
ag53
ag53
ag53
ag53
ag53
ag53
ag53
ag53
ag53
ag53
ag53
ag53
ag53
ag53
ag53
ag53
ag53
ag53
ag53
ag53
ag53
ag53
ag53
ag53
ag53
ag53
ag53
ag53
ag53
ag53
ag53
ag53
ag53
ag53
ag53
ag53
ag53
ag53
ag53
ag53
ag53
ag53
ag53
ag53
ag53
ag53
ag53
ag53
ag53
asS'best_P'
p54
(lp55
(iptreeopt.tree
PTree
p56
(dp57
S'root'
p58
ccopy_reg
_reconstructor
p59
(cptreeopt.tree
Feature
p60
c__builtin__
object
p61
Ntp62
Rp63
(dp64
S'index'
p65
I0
sS'name'
p66
S'Storage'
p67
sS'l'
p68
g59
(cptreeopt.tree
Action
p69
g61
Ntp70
Rp71
(dp72
S'r'
p73
NsS'is_feature'
p74
I00
sS'value'
p75
F0.24688682602830558
sg68
Nsbsg73
g59
(g60
g61
Ntp76
Rp77
(dp78
g65
I1
sg66
S'Day'
p79
sg68
g59
(g60
g61
Ntp80
Rp81
(dp82
g65
I1
sg66
g79
sg68
g59
(g60
g61
Ntp83
Rp84
(dp85
g65
I1
sg66
g79
sg68
g59
(g60
g61
Ntp86
Rp87
(dp88
g65
I2
sg66
S'Inflow'
p89
sg68
g59
(g69
g61
Ntp90
Rp91
(dp92
g73
Nsg74
I00
sg75
F0.6906797600852213
sg68
Nsbsg73
g59
(g69
g61
Ntp93
Rp94
(dp95
g73
Nsg74
I00
sg75
F0.31125405403018913
sg68
NsbsS'threshold'
p96
F5.541449987141431
sg74
I01
sbsg73
g59
(g69
g61
Ntp97
Rp98
(dp99
g73
Nsg74
I00
sg75
F0.4657561384286659
sg68
Nsbsg96
F6.686962106054044
sg74
I01
sbsg73
g59
(g60
g61
Ntp100
Rp101
(dp102
g65
I2
sg66
g89
sg68
g59
(g60
g61
Ntp103
Rp104
(dp105
g65
I1
sg66
g79
sg68
g59
(g69
g61
Ntp106
Rp107
(dp108
g73
Nsg74
I00
sg75
F0.6986987403372552
sg68
Nsbsg73
g59
(g69
g61
Ntp109
Rp110
(dp111
g73
Nsg74
I00
sg75
F0.5583865967932433
sg68
Nsbsg96
F202.91245475635264
sg74
I01
sbsg73
g59
(g60
g61
Ntp112
Rp113
(dp114
g65
I2
sg66
g89
sg68
g59
(g69
g61
Ntp115
Rp116
(dp117
g73
Nsg74
I00
sg75
F0.2526511044992805
sg68
Nsbsg73
g59
(g60
g61
Ntp118
Rp119
(dp120
g65
I0
sg66
g67
sg68
g59
(g69
g61
Ntp121
Rp122
(dp123
g73
Nsg74
I00
sg75
F0.34263546803861755
sg68
Nsbsg73
g59
(g69
g61
Ntp124
Rp125
(dp126
g73
Nsg74
I00
sg75
F0.4956450448304064
sg68
Nsbsg96
F162.97622506964635
sg74
I01
sbsg96
F9.780769739654428
sg74
I01
sbsg96
F6.662755800301325
sg74
I01
sbsg96
F138.47934249170206
sg74
I01
sbsg73
g59
(g60
g61
Ntp127
Rp128
(dp129
g65
I2
sg66
g89
sg68
g59
(g69
g61
Ntp130
Rp131
(dp132
g73
Nsg74
I00
sg75
F0.007810572129065441
sg68
Nsbsg73
g59
(g69
g61
Ntp133
Rp134
(dp135
g73
Nsg74
I00
sg75
F0.04173112961944536
sg68
Nsbsg96
F5.304581565678143
sg74
I01
sbsg96
F246.47422166976787
sg74
I01
sbsg96
F20.68346375221095
sg74
I01
sbsS'L'
p136
(lp137
g63
ag71
ag77
ag81
ag84
ag87
ag91
ag94
ag98
ag101
ag104
ag107
ag110
ag113
ag116
ag119
ag122
ag125
ag128
ag131
ag134
asS'N'
p138
I21
sbag56
ag56
a(iptreeopt.tree
PTree
p139
(dp140
g58
g59
(g60
g61
Ntp141
Rp142
(dp143
g65
I0
sg73
g59
(g60
g61
Ntp144
Rp145
(dp146
g65
I1
sg73
g59
(g60
g61
Ntp147
Rp148
(dp149
g65
I0
sg73
g59
(g69
g61
Ntp150
Rp151
(dp152
g73
Nsg74
I00
sg75
g5
(g9
S'\xfb\xa5\xf0\xcb\x16o\xe3?'
p153
tp154
Rp155
sg68
Nsbsg66
g67
sg96
g5
(g9
S'n\xbfN\x19\x8d\x0ep@'
p156
tp157
Rp158
sg68
g59
(g69
g61
Ntp159
Rp160
(dp161
g73
Nsg74
I00
sg75
g5
(g9
S'\x00\x00\x00\x00\x00\x00\x00\x00'
p162
tp163
Rp164
sg68
Nsbsg74
I01
sbsg66
g79
sg96
g5
(g9
S'\x8e5\xed\xea\xd9r[@'
p165
tp166
Rp167
sg68
g59
(g69
g61
Ntp168
Rp169
(dp170
g73
Nsg74
I00
sg75
g5
(g9
S'K$f \x9aN\xe1?'
p171
tp172
Rp173
sg68
Nsbsg74
I01
sbsg66
g67
sg96
g5
(g9
S'\xc6YV\xa2\xe6}\\@'
p174
tp175
Rp176
sg68
g59
(g69
g61
Ntp177
Rp178
(dp179
g73
Nsg74
I00
sg75
g5
(g9
S'\x00\xe3\x8c\xb4\xc4b\xd1?'
p180
tp181
Rp182
sg68
Nsbsg74
I01
sbsg136
(lp183
g142
ag178
ag145
ag169
ag148
ag160
ag151
asg138
I7
sba(iptreeopt.tree
PTree
p184
(dp185
g58
g59
(g60
g61
Ntp186
Rp187
(dp188
g65
I0
sg73
g59
(g69
g61
Ntp189
Rp190
(dp191
g73
Nsg74
I00
sg75
g5
(g9
S'm\xf5\xef\xa7\x81g\xea?'
p192
tp193
Rp194
sg68
Nsbsg66
g67
sg96
g5
(g9
S'\x00\x00\x00\x00\x00\xe0p@'
p195
tp196
Rp197
sg68
g59
(g60
g61
Ntp198
Rp199
(dp200
g65
I2
sg73
g59
(g60
g61
Ntp201
Rp202
(dp203
g65
I2
sg73
g59
(g60
g61
Ntp204
Rp205
(dp206
g65
I1
sg73
g59
(g60
g61
Ntp207
Rp208
(dp209
g65
I0
sg73
g59
(g69
g61
Ntp210
Rp211
(dp212
g73
Nsg74
I00
sg75
g5
(g9
S'\x8e\xf7\x9d\x1f\x1a$\xe8?'
p213
tp214
Rp215
sg68
Nsbsg66
g67
sg96
g5
(g9
S"\xd7'FJ\xb5%m@"
p216
tp217
Rp218
sg68
g59
(g69
g61
Ntp219
Rp220
(dp221
g73
Nsg74
I00
sg75
g5
(g9
S'\x00/\xd9\xc3=xv?'
p222
tp223
Rp224
sg68
Nsbsg74
I01
sbsg66
g79
sg96
g5
(g9
S'\x9du\x80\xa2\xf0\xfeU@'
p225
tp226
Rp227
sg68
g59
(g69
g61
Ntp228
Rp229
(dp230
g73
Nsg74
I00
sg75
g5
(g9
S'\xd48\xcfO\x82\xb5\xd9?'
p231
tp232
Rp233
sg68
Nsbsg74
I01
sbsg66
g89
sg96
g5
(g9
S'/\x8d\x022i\x90%@'
p234
tp235
Rp236
sg68
g59
(g69
g61
Ntp237
Rp238
(dp239
g73
Nsg74
I00
sg75
g5
(g9
S'\xfc\xbb\xa6\xcd1\xe1\xdd?'
p240
tp241
Rp242
sg68
Nsbsg74
I01
sbsg66
g89
sg96
g5
(g9
S'?\x028l\x89\x93\x1b@'
p243
tp244
Rp245
sg68
g59
(g69
g61
Ntp246
Rp247
(dp248
g73
Nsg74
I00
sg75
g5
(g9
S'\x00\x00\x00\x00\x00\x00\x00\x00'
p249
tp250
Rp251
sg68
Nsbsg74
I01
sbsg74
I01
sbsg136
(lp252
g187
ag199
ag247
ag202
ag238
ag205
ag229
ag208
ag220
ag211
ag190
asg138
I11
sba(iptreeopt.tree
PTree
p253
(dp254
g58
g59
(g60
g61
Ntp255
Rp256
(dp257
g65
I0
sg73
g59
(g60
g61
Ntp258
Rp259
(dp260
g65
I1
sg73
g59
(g60
g61
Ntp261
Rp262
(dp263
g65
I0
sg73
g59
(g69
g61
Ntp264
Rp265
(dp266
g73
Nsg74
I00
sg75
g5
(g9
S'\xb6\x17l*\xad\x92\xe9?'
p267
tp268
Rp269
sg68
Nsbsg66
g67
sg96
g5
(g9
S'\x00\x00\x00\x00\x00\xe0p@'
p270
tp271
Rp272
sg68
g59
(g69
g61
Ntp273
Rp274
(dp275
g73
Nsg74
I00
sg75
g5
(g9
S'\x00\x00\x00\x00\x00\x00\x00\x00'
p276
tp277
Rp278
sg68
Nsbsg74
I01
sbsg66
g79
sg96
g5
(g9
S'j\xdd\t\xedFMR@'
p279
tp280
Rp281
sg68
g59
(g69
g61
Ntp282
Rp283
(dp284
g73
Nsg74
I00
sg75
g5
(g9
S'\xe2\x86y\xeb\x04\x05\xe3?'
p285
tp286
Rp287
sg68
Nsbsg74
I01
sbsg66
g67
sg96
g5
(g9
S' iC\x8c\x9f\xffX@'
p288
tp289
Rp290
sg68
g59
(g69
g61
Ntp291
Rp292
(dp293
g73
Nsg74
I00
sg75
g5
(g9
S'\x00\x00\x00\x00\x00\x00\x00\x00'
p294
tp295
Rp296
sg68
Nsbsg74
I01
sbsg136
(lp297
g256
ag292
ag259
ag283
ag262
ag274
ag265
asg138
I7
sbag253
a(iptreeopt.tree
PTree
p298
(dp299
g58
g59
(g60
g61
Ntp300
Rp301
(dp302
g65
I1
sg73
g59
(g60
g61
Ntp303
Rp304
(dp305
g65
I0
sg73
g59
(g69
g61
Ntp306
Rp307
(dp308
g73
Nsg74
I00
sg75
g5
(g9
S'\x1d\xbe03\xe8d\xe8?'
p309
tp310
Rp311
sg68
Nsbsg66
g67
sg96
g5
(g9
S'\x00\x00\x00\x00\x00\xe0p@'
p312
tp313
Rp314
sg68
g59
(g69
g61
Ntp315
Rp316
(dp317
g73
Nsg74
I00
sg75
g5
(g9
S'\x00\x00\x00\x00\x00\x00\x00\x00'
p318
tp319
Rp320
sg68
Nsbsg74
I01
sbsg66
g79
sg96
g5
(g9
S's\x82\xaa\x10O\xe4V@'
p321
tp322
Rp323
sg68
g59
(g69
g61
Ntp324
Rp325
(dp326
g73
Nsg74
I00
sg75
g5
(g9
S'\xc0>6+\x86/\xe5?'
p327
tp328
Rp329
sg68
Nsbsg74
I01
sbsg136
(lp330
g301
ag325
ag304
ag316
ag307
asg138
I5
sbag298
a(iptreeopt.tree
PTree
p331
(dp332
g58
g59
(g60
g61
Ntp333
Rp334
(dp335
g65
I1
sg73
g59
(g60
g61
Ntp336
Rp337
(dp338
g65
I0
sg73
g59
(g69
g61
Ntp339
Rp340
(dp341
g73
Nsg74
I00
sg75
g5
(g9
S'R\x8c\xda+\xc7A\xe8?'
p342
tp343
Rp344
sg68
Nsbsg66
g67
sg96
g5
(g9
S'\x00\x00\x00\x00\x00\xe0p@'
p345
tp346
Rp347
sg68
g59
(g60
g61
Ntp348
Rp349
(dp350
g65
I2
sg73
g59
(g60
g61
Ntp351
Rp352
(dp353
g65
I0
sg73
g59
(g69
g61
Ntp354
Rp355
(dp356
g73
Nsg74
I00
sg75
g5
(g9
S'\x00\x00\x00\x00\x00\x00\xf0?'
p357
tp358
Rp359
sg68
Nsbsg66
g67
sg96
g5
(g9
S'UK\x8c\xb5\xadVp@'
p360
tp361
Rp362
sg68
g59
(g60
g61
Ntp363
Rp364
(dp365
g65
I2
sg73
g59
(g69
g61
Ntp366
Rp367
(dp368
g73
Nsg74
I00
sg75
g5
(g9
S'\xbf|\xe4S\xfc\x06\xe6?'
p369
tp370
Rp371
sg68
Nsbsg66
g89
sg96
g5
(g9
S'\xe2\xe5y\xe8\x90\xe1&@'
p372
tp373
Rp374
sg68
g59
(g69
g61
Ntp375
Rp376
(dp377
g73
Nsg74
I00
sg75
g5
(g9
S'k\xed\x17\xc56\xc0\xa6?'
p378
tp379
Rp380
sg68
Nsbsg74
I01
sbsg74
I01
sbsg66
g89
sg96
g5
(g9
S"X\x0e\x8b'w,\x19@"
p381
tp382
Rp383
sg68
g59
(g69
g61
Ntp384
Rp385
(dp386
g73
Nsg74
I00
sg75
g5
(g9
S'+\x07=\xc7\x1d\x1f\xb9?'
p387
tp388
Rp389
sg68
Nsbsg74
I01
sbsg74
I01
sbsg66
g79
sg96
g5
(g9
S's\x82\xaa\x10O\xe4V@'
p390
tp391
Rp392
sg68
g59
(g69
g61
Ntp393
Rp394
(dp395
g73
Nsg74
I00
sg75
g5
(g9
S'.#\xbc\x8c\x07B\xea?'
p396
tp397
Rp398
sg68
Nsbsg74
I01
sbsg136
(lp399
g334
ag394
ag337
ag349
ag385
ag352
ag364
ag376
ag367
ag355
ag340
asg138
I11
sbag331
ag331
ag331
ag331
ag331
ag331
ag331
ag331
ag331
ag331
ag331
ag331
ag331
ag331
ag331
ag331
ag331
ag331
ag331
ag331
ag331
ag331
ag331
ag331
ag331
ag331
a(iptreeopt.tree
PTree
p400
(dp401
g58
g59
(g60
g61
Ntp402
Rp403
(dp404
g65
I1
sg73
g59
(g60
g61
Ntp405
Rp406
(dp407
g65
I0
sg73
g59
(g69
g61
Ntp408
Rp409
(dp410
g73
Nsg74
I00
sg75
g5
(g9
S'R\x8c\xda+\xc7A\xe8?'
p411
tp412
Rp413
sg68
Nsbsg66
g67
sg96
g5
(g9
S'\x00\x00\x00\x00\x00\xe0p@'
p414
tp415
Rp416
sg68
g59
(g60
g61
Ntp417
Rp418
(dp419
g65
I2
sg73
g59
(g60
g61
Ntp420
Rp421
(dp422
g65
I0
sg73
g59
(g69
g61
Ntp423
Rp424
(dp425
g73
Nsg74
I00
sg75
g5
(g9
S'\x00\x00\x00\x00\x00\x00\xf0?'
p426
tp427
Rp428
sg68
Nsbsg66
g67
sg96
g5
(g9
S'\xcf\xe1\xda\x99j-p@'
p429
tp430
Rp431
sg68
g59
(g60
g61
Ntp432
Rp433
(dp434
g65
I2
sg73
g59
(g69
g61
Ntp435
Rp436
(dp437
g73
Nsg74
I00
sg75
g5
(g9
S'\xac\x04\xbfg\xdd\xe8\xe9?'
p438
tp439
Rp440
sg68
Nsbsg66
g89
sg96
g5
(g9
S'\xc8\xc4\xe7\xcc@\xcb%@'
p441
tp442
Rp443
sg68
g59
(g69
g61
Ntp444
Rp445
(dp446
g73
Nsg74
I00
sg75
g5
(g9
S'\x00\x00\x00\x00\x00\x00\x00\x00'
p447
tp448
Rp449
sg68
Nsbsg74
I01
sbsg74
I01
sbsg66
g89
sg96
g5
(g9
S':2\xf4\x8b\x11\x82\x15@'
p450
tp451
Rp452
sg68
g59
(g69
g61
Ntp453
Rp454
(dp455
g73
Nsg74
I00
sg75
g5
(g9
S'F\x00\xa3\xf9C\xc3\xac?'
p456
tp457
Rp458
sg68
Nsbsg74
I01
sbsg74
I01
sbsg66
g79
sg96
g5
(g9
S'\x02\xd6.b\x12\xb2W@'
p459
tp460
Rp461
sg68
g59
(g69
g61
Ntp462
Rp463
(dp464
g73
Nsg74
I00
sg75
g5
(g9
S'F\xb5\x0e\x80,O\xeb?'
p465
tp466
Rp467
sg68
Nsbsg74
I01
sbsg136
(lp468
g403
ag463
ag406
ag418
ag454
ag421
ag433
ag445
ag436
ag424
ag409
asg138
I11
sba(iptreeopt.tree
PTree
p469
(dp470
g58
g59
(g60
g61
Ntp471
Rp472
(dp473
g65
I1
sg73
g59
(g60
g61
Ntp474
Rp475
(dp476
g65
I0
sg73
g59
(g69
g61
Ntp477
Rp478
(dp479
g73
Nsg74
I00
sg75
g5
(g9
S'e\xede\x12C\xab\xe9?'
p480
tp481
Rp482
sg68
Nsbsg66
g67
sg96
g5
(g9
S'\x00\x00\x00\x00\x00\xe0p@'
p483
tp484
Rp485
sg68
g59
(g60
g61
Ntp486
Rp487
(dp488
g65
I0
sg73
g59
(g69
g61
Ntp489
Rp490
(dp491
g73
Nsg74
I00
sg75
g5
(g9
S'1jmL\x8b\x99\xe4?'
p492
tp493
Rp494
sg68
Nsbsg66
g67
sg96
g5
(g9
S'\x00\x00\x00\x00\x00\xe0p@'
p495
tp496
Rp497
sg68
g59
(g60
g61
Ntp498
Rp499
(dp500
g65
I2
sg73
g59
(g69
g61
Ntp501
Rp502
(dp503
g73
Nsg74
I00
sg75
g5
(g9
S'W9A\x89q\xdf\xeb?'
p504
tp505
Rp506
sg68
Nsbsg66
g89
sg96
g5
(g9
S'\xde\xecG\xdf2Z\x17@'
p507
tp508
Rp509
sg68
g59
(g69
g61
Ntp510
Rp511
(dp512
g73
Nsg74
I00
sg75
g5
(g9
S'\x00\x00\x00\x00\x00\x00\x00\x00'
p513
tp514
Rp515
sg68
Nsbsg74
I01
sbsg74
I01
sbsg74
I01
sbsg66
g79
sg96
g5
(g9
S'Q\xe8\xd0=\xef\x14[@'
p516
tp517
Rp518
sg68
g59
(g69
g61
Ntp519
Rp520
(dp521
g73
Nsg74
I00
sg75
g5
(g9
S'\x1f\xa4\x9a\x88\xc9\xb5\xeb?'
p522
tp523
Rp524
sg68
Nsbsg74
I01
sbsg136
(lp525
g472
ag520
ag475
ag487
ag499
ag511
ag502
ag490
ag478
asg138
I9
sbag469
ag469
ag469
ag469
ag469
ag469
ag469
ag469
ag469
ag469
ag469
ag469
ag469
ag469
ag469
ag469
ag469
ag469
ag469
ag469
ag469
ag469
ag469
a(iptreeopt.tree
PTree
p526
(dp527
g58
g59
(g60
g61
Ntp528
Rp529
(dp530
g65
I1
sg73
g59
(g60
g61
Ntp531
Rp532
(dp533
g65
I0
sg73
g59
(g69
g61
Ntp534
Rp535
(dp536
g73
Nsg74
I00
sg75
g5
(g9
S'\xd9\xd2^\xe2/u\xe9?'
p537
tp538
Rp539
sg68
Nsbsg66
g67
sg96
g5
(g9
S'\x00\x00\x00\x00\x00\xe0p@'
p540
tp541
Rp542
sg68
g59
(g69
g61
Ntp543
Rp544
(dp545
g73
Nsg74
I00
sg75
g5
(g9
S'z\x12r0\x9e\t\x94?'
p546
tp547
Rp548
sg68
Nsbsg74
I01
sbsg66
g79
sg96
g5
(g9
S'f\x9av\xab\xb3\x93b@'
p549
tp550
Rp551
sg68
g59
(g69
g61
Ntp552
Rp553
(dp554
g73
Nsg74
I00
sg75
g5
(g9
S'\xa1[\xf9\xd2v\xb9\xe5?'
p555
tp556
Rp557
sg68
Nsbsg74
I01
sbsg136
(lp558
g529
ag553
ag532
ag544
ag535
asg138
I5
sbag526
ag526
ag526
ag526
ag526
ag526
ag526
ag526
ag526
ag526
ag526
ag526
ag526
a(iptreeopt.tree
PTree
p559
(dp560
g58
g59
(g60
g61
Ntp561
Rp562
(dp563
g65
I1
sg73
g59
(g60
g61
Ntp564
Rp565
(dp566
g65
I0
sg73
g59
(g69
g61
Ntp567
Rp568
(dp569
g73
Nsg74
I00
sg75
g5
(g9
S'\x0b`\x8c\x92\x16f\xea?'
p570
tp571
Rp572
sg68
Nsbsg66
g67
sg96
g5
(g9
S'\x00\x00\x00\x00\x00\xe0p@'
p573
tp574
Rp575
sg68
g59
(g69
g61
Ntp576
Rp577
(dp578
g73
Nsg74
I00
sg75
g5
(g9
S'\x00\x00\x00\x00\x00\x00\x00\x00'
p579
tp580
Rp581
sg68
Nsbsg74
I01
sbsg66
g79
sg96
g5
(g9
S'\x16\xb0\xcd\x95\x96\x97V@'
p582
tp583
Rp584
sg68
g59
(g69
g61
Ntp585
Rp586
(dp587
g73
Nsg74
I00
sg75
g5
(g9
S'\x00\x00\x00\x00\x00\x00\xf0?'
p588
tp589
Rp590
sg68
Nsbsg74
I01
sbsg136
(lp591
g562
ag586
ag565
ag577
ag568
asg138
I5
sbag559
ag559
ag559
ag559
ag559
ag559
ag559
a(iptreeopt.tree
PTree
p592
(dp593
g58
g59
(g60
g61
Ntp594
Rp595
(dp596
g65
I1
sg73
g59
(g60
g61
Ntp597
Rp598
(dp599
g65
I0
sg73
g59
(g69
g61
Ntp600
Rp601
(dp602
g73
Nsg74
I00
sg75
g5
(g9
S'5\xf0\x0c\xdfe\x9e\xea?'
p603
tp604
Rp605
sg68
Nsbsg66
g67
sg96
g5
(g9
S'\x00\x00\x00\x00\x00\xe0p@'
p606
tp607
Rp608
sg68
g59
(g69
g61
Ntp609
Rp610
(dp611
g73
Nsg74
I00
sg75
g5
(g9
S'\x7f\xfdM\xc4\xc0%\x8a?'
p612
tp613
Rp614
sg68
Nsbsg74
I01
sbsg66
g79
sg96
g5
(g9
S'\xaa\xeaQ\x02\x88eU@'
p615
tp616
Rp617
sg68
g59
(g69
g61
Ntp618
Rp619
(dp620
g73
Nsg74
I00
sg75
g5
(g9
S'\x00\x00\x00\x00\x00\x00\xf0?'
p621
tp622
Rp623
sg68
Nsbsg74
I01
sbsg136
(lp624
g595
ag619
ag598
ag610
ag601
asg138
I5
sbag592
ag592
ag592
ag592
ag592
ag592
ag592
ag592
ag592
ag592
ag592
ag592
ag592
ag592
ag592
ag592
ag592
ag592
ag592
ag592
ag592
ag592
ag592
ag592
ag592
ag592
ag592
ag592
ag592
ag592
ag592
ag592
ag592
ag592
ag592
ag592
ag592
ag592
ag592
ag592
ag592
ag592
ag592
ag592
ag592
ag592
ag592
ag592
ag592
ag592
ag592
ag592
ag592
ag592
ag592
ag592
ag592
ag592
ag592
ag592
ag592
ag592
ag592
ag592
ag592
ag592
ag592
ag592
ag592
ag592
ag592
ag592
ag592
ag592
ag592
ag592
ag592
ag592
ag592
ag592
ag592
ag592
ag592
ag592
ag592
ag592
ag592
ag592
ag592
ag592
ag592
ag592
ag592
ag592
ag592
ag592
ag592
ag592
ag592
ag592
ag592
ag592
ag592
ag592
ag592
ag592
ag592
ag592
ag592
ag592
ag592
ag592
ag592
ag592
ag592
ag592
ag592
ag592
ag592
ag592
ag592
ag592
ag592
ag592
ag592
ag592
ag592
ag592
ag592
ag592
ag592
ag592
ag592
ag592
ag592
ag592
ag592
ag592
ag592
ag592
ag592
ag592
ag592
ag592
ag592
ag592
ag592
ag592
ag592
ag592
ag592
ag592
ag592
ag592
ag592
ag592
ag592
ag592
ag592
ag592
ag592
ag592
ag592
ag592
ag592
ag592
ag592
ag592
ag592
ag592
ag592
ag592
ag592
ag592
ag592
ag592
ag592
ag592
ag592
ag592
ag592
ag592
ag592
ag592
ag592
ag592
ag592
ag592
ag592
ag592
ag592
ag592
ag592
ag592
ag592
ag592
ag592
ag592
ag592
ag592
ag592
ag592
ag592
ag592
ag592
ag592
ag592
ag592
ag592
ag592
ag592
ag592
ag592
ag592
ag592
ag592
ag592
ag592
ag592
ag592
ag592
ag592
ag592
ag592
ag592
ag592
ag592
ag592
ag592
ag592
ag592
ag592
ag592
ag592
ag592
ag592
ag592
ag592
ag592
ag592
ag592
ag592
ag592
ag592
ag592
ag592
ag592
ag592
ag592
ag592
ag592
ag592
ag592
ag592
ag592
ag592
ag592
ag592
ag592
ag592
ag592
ag592
ag592
ag592
ag592
ag592
ag592
ag592
ag592
ag592
ag592
ag592
ag592
ag592
ag592
ag592
ag592
ag592
ag592
ag592
ag592
ag592
ag592
ag592
ag592
ag592
ag592
ag592
ag592
ag592
ag592
ag592
ag592
ag592
a(iptreeopt.tree
PTree
p625
(dp626
g58
g59
(g60
g61
Ntp627
Rp628
(dp629
g65
I1
sg73
g59
(g60
g61
Ntp630
Rp631
(dp632
g65
I1
sg73
g59
(g60
g61
Ntp633
Rp634
(dp635
g65
I0
sg73
g59
(g69
g61
Ntp636
Rp637
(dp638
g73
Nsg74
I00
sg75
g5
(g9
S'\xbf\t\x86)\x9d\xf5\xe8?'
p639
tp640
Rp641
sg68
Nsbsg66
g67
sg96
g5
(g9
S'\x00\x00\x00\x00\x00\xe0p@'
p642
tp643
Rp644
sg68
g59
(g69
g61
Ntp645
Rp646
(dp647
g73
Nsg74
I00
sg75
g5
(g9
S'\x12\x1d\x17\x8b\xc0U\xb5?'
p648
tp649
Rp650
sg68
Nsbsg74
I01
sbsg66
g79
sg96
g5
(g9
S'z.\xcfPe\x92Y@'
p651
tp652
Rp653
sg68
g59
(g69
g61
Ntp654
Rp655
(dp656
g73
Nsg74
I00
sg75
g5
(g9
S'V\xb3\xf7\xc5\x94\x03\xe5?'
p657
tp658
Rp659
sg68
Nsbsg74
I01
sbsg66
g79
sg96
g5
(g9
S'\x1b\x89\x95\xee\xa9\x9eX@'
p660
tp661
Rp662
sg68
g59
(g69
g61
Ntp663
Rp664
(dp665
g73
Nsg74
I00
sg75
g5
(g9
S'\xf4\x8e>\x94\x9cJ\xe7?'
p666
tp667
Rp668
sg68
Nsbsg74
I01
sbsg136
(lp669
g628
ag664
ag631
ag655
ag634
ag646
ag637
asg138
I7
sbag625
ag625
ag625
ag625
ag625
ag625
ag625
ag625
ag625
ag625
ag625
ag625
ag625
ag625
ag625
ag625
ag625
ag625
ag625
ag625
ag625
ag625
ag625
ag625
ag625
ag625
ag625
ag625
ag625
ag625
ag625
ag625
ag625
ag625
ag625
ag625
ag625
ag625
ag625
ag625
ag625
ag625
ag625
ag625
ag625
ag625
ag625
ag625
ag625
ag625
ag625
ag625
ag625
ag625
ag625
ag625
ag625
ag625
ag625
ag625
ag625
ag625
ag625
ag625
ag625
ag625
ag625
ag625
ag625
ag625
ag625
ag625
ag625
ag625
ag625
ag625
ag625
ag625
ag625
ag625
ag625
ag625
ag625
ag625
ag625
ag625
ag625
ag625
ag625
ag625
ag625
ag625
ag625
ag625
ag625
ag625
ag625
ag625
ag625
ag625
ag625
ag625
ag625
ag625
ag625
ag625
ag625
ag625
ag625
ag625
ag625
ag625
ag625
ag625
ag625
ag625
ag625
ag625
ag625
ag625
ag625
ag625
ag625
ag625
ag625
ag625
ag625
ag625
ag625
ag625
ag625
ag625
ag625
ag625
ag625
ag625
ag625
ag625
ag625
ag625
ag625
ag625
ag625
ag625
ag625
ag625
ag625
ag625
ag625
ag625
ag625
ag625
ag625
ag625
ag625
ag625
ag625
ag625
ag625
ag625
ag625
ag625
ag625
ag625
ag625
ag625
ag625
ag625
ag625
ag625
ag625
ag625
ag625
ag625
ag625
ag625
ag625
ag625
ag625
ag625
ag625
ag625
ag625
ag625
ag625
ag625
ag625
ag625
ag625
ag625
ag625
ag625
ag625
ag625
ag625
ag625
ag625
ag625
ag625
ag625
ag625
ag625
ag625
ag625
ag625
ag625
ag625
ag625
a(iptreeopt.tree
PTree
p670
(dp671
g58
g59
(g60
g61
Ntp672
Rp673
(dp674
g65
I1
sg73
g59
(g60
g61
Ntp675
Rp676
(dp677
g65
I0
sg73
g59
(g69
g61
Ntp678
Rp679
(dp680
g73
Nsg74
I00
sg75
g5
(g9
S'\xc7\xb2M\xf4\\\x13\xe9?'
p681
tp682
Rp683
sg68
Nsbsg66
g67
sg96
g5
(g9
S'\x00\x00\x00\x00\x00\xe0p@'
p684
tp685
Rp686
sg68
g59
(g69
g61
Ntp687
Rp688
(dp689
g73
Nsg74
I00
sg75
g5
(g9
S'\x9c\x04Q \xc9\xd6\xb3?'
p690
tp691
Rp692
sg68
Nsbsg74
I01
sbsg66
g79
sg96
g5
(g9
S'\x14\xf7\x10\xaa+^W@'
p693
tp694
Rp695
sg68
g59
(g69
g61
Ntp696
Rp697
(dp698
g73
Nsg74
I00
sg75
g5
(g9
S'Jn\xbd"+\t\xe9?'
p699
tp700
Rp701
sg68
Nsbsg74
I01
sbsg136
(lp702
g673
ag697
ag676
ag688
ag679
asg138
I5
sbag670
ag670
ag670
ag670
ag670
ag670
ag670
ag670
ag670
ag670
ag670
ag670
ag670
ag670
ag670
ag670
ag670
ag670
ag670
ag670
ag670
ag670
ag670
ag670
ag670
ag670
ag670
ag670
ag670
ag670
ag670
ag670
ag670
ag670
ag670
ag670
ag670
ag670
ag670
ag670
ag670
ag670
ag670
ag670
ag670
ag670
ag670
ag670
ag670
ag670
ag670
ag670
ag670
ag670
ag670
ag670
ag670
ag670
ag670
ag670
ag670
ag670
ag670
ag670
ag670
ag670
ag670
ag670
ag670
ag670
ag670
ag670
ag670
ag670
ag670
ag670
ag670
ag670
ag670
ag670
ag670
ag670
ag670
ag670
ag670
ag670
ag670
ag670
ag670
ag670
ag670
ag670
ag670
ag670
ag670
ag670
ag670
ag670
ag670
ag670
ag670
ag670
ag670
ag670
ag670
ag670
ag670
ag670
ag670
ag670
ag670
ag670
ag670
ag670
ag670
ag670
ag670
ag670
ag670
ag670
ag670
ag670
ag670
ag670
ag670
ag670
ag670
ag670
ag670
ag670
ag670
ag670
ag670
ag670
ag670
ag670
ag670
ag670
ag670
ag670
ag670
ag670
ag670
ag670
ag670
ag670
ag670
ag670
ag670
ag670
ag670
ag670
ag670
ag670
ag670
ag670
ag670
ag670
ag670
ag670
ag670
ag670
ag670
ag670
ag670
ag670
ag670
ag670
ag670
ag670
ag670
ag670
ag670
ag670
ag670
ag670
ag670
ag670
ag670
ag670
ag670
ag670
ag670
ag670
ag670
ag670
ag670
ag670
ag670
ag670
ag670
ag670
ag670
ag670
ag670
ag670
ag670
ag670
ag670
ag670
ag670
ag670
ag670
ag670
ag670
ag670
ag670
ag670
ag670
ag670
ag670
ag670
ag670
ag670
ag670
ag670
ag670
ag670
ag670
ag670
ag670
ag670
ag670
ag670
ag670
ag670
ag670
ag670
ag670
ag670
ag670
ag670
ag670
ag670
ag670
ag670
ag670
ag670
ag670
ag670
ag670
ag670
ag670
ag670
ag670
ag670
ag670
ag670
ag670
ag670
ag670
ag670
ag670
ag670
ag670
ag670
ag670
ag670
ag670
ag670
ag670
ag670
ag670
ag670
ag670
ag670
ag670
ag670
ag670
ag670
ag670
ag670
ag670
ag670
ag670
ag670
ag670
ag670
ag670
ag670
ag670
ag670
ag670
a(iptreeopt.tree
PTree
p703
(dp704
g58
g59
(g60
g61
Ntp705
Rp706
(dp707
g65
I1
sg73
g59
(g60
g61
Ntp708
Rp709
(dp710
g65
I1
sg73
g59
(g60
g61
Ntp711
Rp712
(dp713
g65
I0
sg73
g59
(g69
g61
Ntp714
Rp715
(dp716
g73
Nsg74
I00
sg75
g5
(g9
S'z\xc6=\x9e\x1c\x13\xea?'
p717
tp718
Rp719
sg68
Nsbsg66
g67
sg96
g5
(g9
S'\x00\x00\x00\x00\x00\xe0p@'
p720
tp721
Rp722
sg68
g59
(g69
g61
Ntp723
Rp724
(dp725
g73
Nsg74
I00
sg75
g5
(g9
S"0I\xcb\x82'L\xa0?"
p726
tp727
Rp728
sg68
Nsbsg74
I01
sbsg66
g79
sg96
g5
(g9
S'\xea8\xe57\xf0ZW@'
p729
tp730
Rp731
sg68
g59
(g69
g61
Ntp732
Rp733
(dp734
g73
Nsg74
I00
sg75
g5
(g9
S'\xc5\x98\xc1W\xa5\xe7\xef?'
p735
tp736
Rp737
sg68
Nsbsg74
I01
sbsg66
g79
sg96
g5
(g9
S'\x12\n\xfb\x7fn\xdbP@'
p738
tp739
Rp740
sg68
g59
(g69
g61
Ntp741
Rp742
(dp743
g73
Nsg74
I00
sg75
g5
(g9
S'\xa4lA\xffr%\xeb?'
p744
tp745
Rp746
sg68
Nsbsg74
I01
sbsg136
(lp747
g706
ag742
ag709
ag733
ag712
ag724
ag715
asg138
I7
sbag703
ag703
ag703
ag703
ag703
ag703
ag703
ag703
ag703
ag703
ag703
ag703
ag703
ag703
ag703
ag703
ag703
ag703
ag703
ag703
ag703
ag703
ag703
ag703
ag703
ag703
ag703
ag703
ag703
ag703
ag703
ag703
ag703
ag703
ag703
ag703
ag703
ag703
ag703
ag703
ag703
ag703
ag703
ag703
ag703
ag703
ag703
ag703
ag703
ag703
ag703
ag703
ag703
ag703
ag703
ag703
ag703
ag703
ag703
ag703
ag703
ag703
ag703
ag703
ag703
ag703
ag703
ag703
ag703
ag703
ag703
ag703
ag703
ag703
ag703
ag703
ag703
ag703
ag703
ag703
ag703
ag703
ag703
ag703
ag703
ag703
ag703
ag703
ag703
ag703
ag703
ag703
ag703
ag703
ag703
ag703
ag703
ag703
ag703
ag703
ag703
ag703
ag703
ag703
ag703
ag703
ag703
ag703
ag703
ag703
ag703
ag703
ag703
ag703
ag703
ag703
ag703
ag703
ag703
ag703
ag703
ag703
ag703
ag703
ag703
ag703
ag703
ag703
ag703
ag703
ag703
ag703
ag703
ag703
ag703
ag703
ag703
ag703
ag703
ag703
ag703
ag703
ag703
ag703
ag703
ag703
ag703
ag703
ag703
ag703
ag703
ag703
ag703
ag703
ag703
ag703
ag703
ag703
ag703
ag703
ag703
ag703
ag703
ag703
ag703
ag703
ag703
ag703
ag703
ag703
asS'time'
p748
(lp749
I1
aI2
aI3
aI4
aI6
aI7
aI8
aI9
aI10
aI11
aI12
aI13
aI14
aI15
aI16
aI17
aI18
aI19
aI20
aI21
aI22
aI23
aI24
aI26
aI27
aI28
aI29
aI30
aI31
aI32
aI33
aI34
aI35
aI37
aI38
aI39
aI40
aI41
aI42
aI44
aI45
aI46
aI47
aI48
aI50
aI51
aI52
aI53
aI54
aI56
aI57
aI58
aI59
aI60
aI61
aI62
aI64
aI65
aI66
aI67
aI68
aI69
aI70
aI71
aI72
aI73
aI74
aI76
aI77
aI78
aI79
aI80
aI81
aI82
aI83
aI84
aI85
aI86
aI87
aI88
aI89
aI90
aI91
aI92
aI93
aI94
aI95
aI96
aI97
aI98
aI99
aI100
aI101
aI102
aI103
aI104
aI105
aI106
aI107
aI108
aI109
aI110
aI111
aI112
aI113
aI114
aI115
aI116
aI117
aI118
aI119
aI120
aI121
aI122
aI123
aI124
aI125
aI126
aI127
aI129
aI130
aI131
aI132
aI133
aI134
aI135
aI136
aI137
aI138
aI139
aI140
aI141
aI142
aI143
aI144
aI145
aI146
aI147
aI148
aI149
aI150
aI151
aI152
aI153
aI154
aI155
aI156
aI157
aI158
aI159
aI160
aI161
aI162
aI163
aI164
aI165
aI166
aI167
aI168
aI169
aI170
aI171
aI172
aI173
aI174
aI175
aI176
aI177
aI178
aI179
aI180
aI181
aI182
aI183
aI184
aI185
aI186
aI187
aI188
aI189
aI190
aI191
aI192
aI193
aI194
aI195
aI196
aI197
aI198
aI199
aI200
aI201
aI202
aI203
aI204
aI205
aI206
aI207
aI208
aI209
aI210
aI211
aI212
aI213
aI214
aI215
aI216
aI217
aI218
aI219
aI220
aI221
aI222
aI223
aI224
aI225
aI226
aI227
aI228
aI229
aI230
aI231
aI232
aI233
aI234
aI235
aI236
aI237
aI239
aI240
aI241
aI242
aI243
aI244
aI245
aI246
aI247
aI248
aI249
aI250
aI251
aI252
aI253
aI254
aI255
aI256
aI257
aI258
aI259
aI260
aI261
aI262
aI263
aI264
aI265
aI266
aI267
aI268
aI269
aI270
aI271
aI272
aI273
aI274
aI275
aI276
aI277
aI278
aI279
aI280
aI281
aI282
aI283
aI284
aI285
aI286
aI287
aI288
aI289
aI290
aI291
aI292
aI293
aI294
aI295
aI296
aI297
aI298
aI299
aI300
aI301
aI302
aI303
aI304
aI305
aI306
aI307
aI308
aI309
aI310
aI311
aI312
aI313
aI314
aI315
aI316
aI317
aI318
aI319
aI320
aI321
aI322
aI323
aI324
aI325
aI326
aI327
aI328
aI329
aI330
aI331
aI332
aI333
aI334
aI335
aI336
aI337
aI338
aI339
aI340
aI341
aI342
aI343
aI344
aI345
aI346
aI347
aI348
aI349
aI350
aI351
aI352
aI353
aI355
aI355
aI356
aI357
aI358
aI359
aI361
aI362
aI363
aI364
aI365
aI366
aI367
aI368
aI369
aI370
aI371
aI372
aI373
aI374
aI375
aI376
aI377
aI378
aI379
aI380
aI381
aI382
aI383
aI384
aI385
aI386
aI387
aI388
aI389
aI390
aI391
aI392
aI393
aI394
aI395
aI396
aI397
aI398
aI399
aI400
aI401
aI402
aI403
aI404
aI405
aI406
aI407
aI408
aI409
aI410
aI411
aI412
aI413
aI414
aI415
aI416
aI417
aI418
aI419
aI420
aI421
aI422
aI423
aI424
aI425
aI426
aI427
aI428
aI429
aI430
aI431
aI432
aI433
aI434
aI435
aI436
aI437
aI438
aI439
aI440
aI441
aI442
aI443
aI444
aI445
aI446
aI447
aI448
aI449
aI450
aI452
aI453
aI454
aI454
aI455
aI456
aI457
aI458
aI459
aI460
aI461
aI462
aI463
aI464
aI466
aI467
aI468
aI469
aI470
aI471
aI472
aI473
aI474
aI475
aI476
aI477
aI478
aI479
aI480
aI481
aI482
aI483
aI484
aI485
aI486
aI487
aI488
aI489
aI490
aI491
aI492
aI493
aI494
aI495
aI496
aI497
aI498
aI499
aI500
aI501
aI502
aI503
aI504
aI505
aI506
aI507
aI508
aI509
aI510
aI511
aI512
aI513
aI514
aI515
aI517
aI518
aI519
aI520
aI521
aI522
aI523
aI524
aI525
aI526
aI527
aI528
aI529
aI530
aI531
aI532
aI533
aI534
aI535
aI536
aI537
aI538
aI539
aI540
aI541
aI542
aI543
aI544
aI545
aI546
aI547
aI548
aI549
aI550
aI551
aI552
aI553
aI554
aI555
aI556
aI557
aI558
aI559
aI560
aI561
aI562
aI563
aI564
aI565
aI566
aI567
aI568
aI569
aI570
aI571
aI572
aI573
aI574
aI575
aI576
aI577
aI578
aI579
aI580
aI581
aI582
aI583
aI584
aI585
aI586
aI587
aI589
aI590
aI591
aI592
aI593
aI594
aI595
aI596
aI597
aI598
aI599
aI600
aI601
aI602
aI603
aI604
aI605
aI606
aI607
aI608
aI609
aI610
aI611
aI612
aI613
aI614
aI615
aI616
aI617
aI618
aI619
aI620
aI621
aI622
aI623
aI624
aI625
aI626
aI627
aI628
aI629
aI630
aI631
aI632
aI633
aI634
aI635
aI636
aI637
aI638
aI639
aI640
aI641
aI642
aI643
aI644
aI645
aI646
aI647
aI648
aI649
aI650
aI651
aI652
aI653
aI654
aI655
aI656
aI658
aI659
aI660
aI661
aI662
aI663
aI664
aI665
aI666
aI667
aI668
aI669
aI670
aI671
aI672
aI673
aI674
aI675
aI676
aI677
aI678
aI679
aI680
aI681
aI682
aI683
aI684
aI685
aI686
aI687
aI688
aI689
aI690
aI691
aI692
aI693
aI694
aI695
aI696
aI697
aI698
aI699
aI700
aI701
aI702
aI703
aI704
aI705
aI706
aI707
aI708
aI709
aI710
aI711
aI712
aI713
aI714
aI715
aI716
aI717
aI718
aI720
aI721
aI722
aI723
aI724
aI725
aI726
aI727
aI728
aI729
aI730
aI731
aI732
aI733
aI734
aI735
aI736
aI737
aI738
aI739
aI740
aI741
aI742
aI743
aI744
aI745
aI746
aI747
aI748
aI749
aI751
aI752
aI753
aI754
aI755
aI756
aI757
aI758
aI759
aI760
aI761
aI762
aI763
aI764
aI765
aI766
aI767
aI768
aI769
aI770
aI771
aI772
aI773
aI774
aI775
aI776
aI777
aI778
aI779
aI780
aI781
aI782
aI783
aI784
aI785
aI786
aI787
aI788
aI789
aI790
aI791
aI792
aI793
aI794
aI795
aI796
aI797
aI798
aI799
aI800
aI801
aI802
aI803
aI804
aI805
aI806
aI807
aI808
aI809
aI810
aI811
aI812
aI813
aI814
aI815
aI816
aI817
aI818
aI819
aI820
aI821
aI822
aI823
aI824
aI825
aI826
aI827
aI828
aI829
aI830
aI831
aI832
aI833
aI834
aI835
aI836
aI837
aI838
aI840
aI841
aI842
aI843
aI844
aI845
aI846
aI847
aI848
aI849
aI850
aI851
aI852
aI853
aI854
aI855
aI856
aI857
aI858
aI860
aI861
aI862
aI863
aI864
aI865
aI866
aI867
aI868
aI869
aI870
aI871
aI872
aI873
aI874
aI875
aI876
aI877
aI878
aI879
aI881
aI882
aI883
aI884
aI885
aI886
aI887
aI888
aI889
aI890
aI891
aI892
aI894
aI895
aI896
aI897
aI898
aI899
aI900
aI901
aI902
aI903
aI905
aI906
aI907
aI908
aI909
aI910
aI911
aI912
aI913
aI914
aI915
aI916
aI918
aI919
aI920
aI921
aI922
aI923
aI924
aI925
aI926
aI927
aI928
aI929
aI930
aI932
aI933
aI934
aI935
aI936
aI937
aI938
aI939
aI940
aI941
aI942
aI943
aI944
aI945
aI946
aI947
aI948
aI949
aI950
aI951
aI953
aI954
aI955
aI956
aI957
aI958
aI959
aI960
aI961
aI962
aI963
aI964
aI965
aI966
aI967
aI968
aI970
aI971
aI972
aI973
aI974
aI975
aI976
aI977
aI978
aI979
aI980
aI981
aI982
aI984
aI985
aI986
aI987
aI988
aI989
aI990
aI991
aI992
aI993
aI995
aI996
aI997
aI998
aI999
aI1000
aI1001
aI1002
aI1003
aI1004
aI1005
aI1006
aI1007
aI1008
aI1009
aI1010
aI1011
aI1012
aI1013
aI1014
aI1016
aI1017
aI1018
aI1019
aI1020
aI1021
aI1022
aI1023
aI1024
aI1025
aI1026
aI1027
aI1028
aI1029
aI1030
aI1031
aI1032
aI1033
aI1034
aI1035
aI1036
aI1037
aI1038
aI1040
aI1041
aI1042
aI1043
aI1044
aI1045
aI1046
aI1047
aI1048
aI1049
aI1050
aI1051
aI1052
aI1053
aI1054
aI1055
aI1056
aI1057
aI1059
aI1060
aI1061
aI1062
aI1063
aI1064
aI1065
aI1066
aI1067
aI1068
aI1069
aI1070
aI1071
aI1072
aI1073
as.