(dp0
S'nfe'
p1
(lp2
I192
aI384
aI576
aI768
aI960
aI1152
aI1344
aI1536
aI1728
aI1920
aI2112
aI2304
aI2496
aI2688
aI2880
aI3072
aI3264
aI3456
aI3648
aI3840
aI4032
aI4224
aI4416
aI4608
aI4800
aI4992
aI5184
aI5376
aI5568
aI5760
aI5952
aI6144
aI6336
aI6528
aI6720
aI6912
aI7104
aI7296
aI7488
aI7680
aI7872
aI8064
aI8256
aI8448
aI8640
aI8832
aI9024
aI9216
aI9408
aI9600
aI9792
aI9984
aI10176
aI10368
aI10560
aI10752
aI10944
aI11136
aI11328
aI11520
aI11712
aI11904
aI12096
aI12288
aI12480
aI12672
aI12864
aI13056
aI13248
aI13440
aI13632
aI13824
aI14016
aI14208
aI14400
aI14592
aI14784
aI14976
aI15168
aI15360
aI15552
aI15744
aI15936
aI16128
aI16320
aI16512
aI16704
aI16896
aI17088
aI17280
aI17472
aI17664
aI17856
aI18048
aI18240
aI18432
aI18624
aI18816
aI19008
aI19200
aI19392
aI19584
aI19776
aI19968
aI20160
aI20352
aI20544
aI20736
aI20928
aI21120
aI21312
aI21504
aI21696
aI21888
aI22080
aI22272
aI22464
aI22656
aI22848
aI23040
aI23232
aI23424
aI23616
aI23808
aI24000
aI24192
aI24384
aI24576
aI24768
aI24960
aI25152
aI25344
aI25536
aI25728
aI25920
aI26112
aI26304
aI26496
aI26688
aI26880
aI27072
aI27264
aI27456
aI27648
aI27840
aI28032
aI28224
aI28416
aI28608
aI28800
aI28992
aI29184
aI29376
aI29568
aI29760
aI29952
aI30144
aI30336
aI30528
aI30720
aI30912
aI31104
aI31296
aI31488
aI31680
aI31872
aI32064
aI32256
aI32448
aI32640
aI32832
aI33024
aI33216
aI33408
aI33600
aI33792
aI33984
aI34176
aI34368
aI34560
aI34752
aI34944
aI35136
aI35328
aI35520
aI35712
aI35904
aI36096
aI36288
aI36480
aI36672
aI36864
aI37056
aI37248
aI37440
aI37632
aI37824
aI38016
aI38208
aI38400
aI38592
aI38784
aI38976
aI39168
aI39360
aI39552
aI39744
aI39936
aI40128
aI40320
aI40512
aI40704
aI40896
aI41088
aI41280
aI41472
aI41664
aI41856
aI42048
aI42240
aI42432
aI42624
aI42816
aI43008
aI43200
aI43392
aI43584
aI43776
aI43968
aI44160
aI44352
aI44544
aI44736
aI44928
aI45120
aI45312
aI45504
aI45696
aI45888
aI46080
aI46272
aI46464
aI46656
aI46848
aI47040
aI47232
aI47424
aI47616
aI47808
aI48000
aI48192
aI48384
aI48576
aI48768
aI48960
aI49152
aI49344
aI49536
aI49728
aI49920
aI50112
aI50304
aI50496
aI50688
aI50880
aI51072
aI51264
aI51456
aI51648
aI51840
aI52032
aI52224
aI52416
aI52608
aI52800
aI52992
aI53184
aI53376
aI53568
aI53760
aI53952
aI54144
aI54336
aI54528
aI54720
aI54912
aI55104
aI55296
aI55488
aI55680
aI55872
aI56064
aI56256
aI56448
aI56640
aI56832
aI57024
aI57216
aI57408
aI57600
aI57792
aI57984
aI58176
aI58368
aI58560
aI58752
aI58944
aI59136
aI59328
aI59520
aI59712
aI59904
aI60096
aI60288
aI60480
aI60672
aI60864
aI61056
aI61248
aI61440
aI61632
aI61824
aI62016
aI62208
aI62400
aI62592
aI62784
aI62976
aI63168
aI63360
aI63552
aI63744
aI63936
aI64128
aI64320
aI64512
aI64704
aI64896
aI65088
aI65280
aI65472
aI65664
aI65856
aI66048
aI66240
aI66432
aI66624
aI66816
aI67008
aI67200
aI67392
aI67584
aI67776
aI67968
aI68160
aI68352
aI68544
aI68736
aI68928
aI69120
aI69312
aI69504
aI69696
aI69888
aI70080
aI70272
aI70464
aI70656
aI70848
aI71040
aI71232
aI71424
aI71616
aI71808
aI72000
aI72192
aI72384
aI72576
aI72768
aI72960
aI73152
aI73344
aI73536
aI73728
aI73920
aI74112
aI74304
aI74496
aI74688
aI74880
aI75072
aI75264
aI75456
aI75648
aI75840
aI76032
aI76224
aI76416
aI76608
aI76800
aI76992
aI77184
aI77376
aI77568
aI77760
aI77952
aI78144
aI78336
aI78528
aI78720
aI78912
aI79104
aI79296
aI79488
aI79680
aI79872
aI80064
aI80256
aI80448
aI80640
aI80832
aI81024
aI81216
aI81408
aI81600
aI81792
aI81984
aI82176
aI82368
aI82560
aI82752
aI82944
aI83136
aI83328
aI83520
aI83712
aI83904
aI84096
aI84288
aI84480
aI84672
aI84864
aI85056
aI85248
aI85440
aI85632
aI85824
aI86016
aI86208
aI86400
aI86592
aI86784
aI86976
aI87168
aI87360
aI87552
aI87744
aI87936
aI88128
aI88320
aI88512
aI88704
aI88896
aI89088
aI89280
aI89472
aI89664
aI89856
aI90048
aI90240
aI90432
aI90624
aI90816
aI91008
aI91200
aI91392
aI91584
aI91776
aI91968
aI92160
aI92352
aI92544
aI92736
aI92928
aI93120
aI93312
aI93504
aI93696
aI93888
aI94080
aI94272
aI94464
aI94656
aI94848
aI95040
aI95232
aI95424
aI95616
aI95808
aI96000
aI96192
aI96384
aI96576
aI96768
aI96960
aI97152
aI97344
aI97536
aI97728
aI97920
aI98112
aI98304
aI98496
aI98688
aI98880
aI99072
aI99264
aI99456
aI99648
aI99840
aI100032
aI100224
aI100416
aI100608
aI100800
aI100992
aI101184
aI101376
aI101568
aI101760
aI101952
aI102144
aI102336
aI102528
aI102720
aI102912
aI103104
aI103296
aI103488
aI103680
aI103872
aI104064
aI104256
aI104448
aI104640
aI104832
aI105024
aI105216
aI105408
aI105600
aI105792
aI105984
aI106176
aI106368
aI106560
aI106752
aI106944
aI107136
aI107328
aI107520
aI107712
aI107904
aI108096
aI108288
aI108480
aI108672
aI108864
aI109056
aI109248
aI109440
aI109632
aI109824
aI110016
aI110208
aI110400
aI110592
aI110784
aI110976
aI111168
aI111360
aI111552
aI111744
aI111936
aI112128
aI112320
aI112512
aI112704
aI112896
aI113088
aI113280
aI113472
aI113664
aI113856
aI114048
aI114240
aI114432
aI114624
aI114816
aI115008
aI115200
aI115392
aI115584
aI115776
aI115968
aI116160
aI116352
aI116544
aI116736
aI116928
aI117120
aI117312
aI117504
aI117696
aI117888
aI118080
aI118272
aI118464
aI118656
aI118848
aI119040
aI119232
aI119424
aI119616
aI119808
aI120000
aI120192
aI120384
aI120576
aI120768
aI120960
aI121152
aI121344
aI121536
aI121728
aI121920
aI122112
aI122304
aI122496
aI122688
aI122880
aI123072
aI123264
aI123456
aI123648
aI123840
aI124032
aI124224
aI124416
aI124608
aI124800
aI124992
aI125184
aI125376
aI125568
aI125760
aI125952
aI126144
aI126336
aI126528
aI126720
aI126912
aI127104
aI127296
aI127488
aI127680
aI127872
aI128064
aI128256
aI128448
aI128640
aI128832
aI129024
aI129216
aI129408
aI129600
aI129792
aI129984
aI130176
aI130368
aI130560
aI130752
aI130944
aI131136
aI131328
aI131520
aI131712
aI131904
aI132096
aI132288
aI132480
aI132672
aI132864
aI133056
aI133248
aI133440
aI133632
aI133824
aI134016
aI134208
aI134400
aI134592
aI134784
aI134976
aI135168
aI135360
aI135552
aI135744
aI135936
aI136128
aI136320
aI136512
aI136704
aI136896
aI137088
aI137280
aI137472
aI137664
aI137856
aI138048
aI138240
aI138432
aI138624
aI138816
aI139008
aI139200
aI139392
aI139584
aI139776
aI139968
aI140160
aI140352
aI140544
aI140736
aI140928
aI141120
aI141312
aI141504
aI141696
aI141888
aI142080
aI142272
aI142464
aI142656
aI142848
aI143040
aI143232
aI143424
aI143616
aI143808
aI144000
aI144192
aI144384
aI144576
aI144768
aI144960
aI145152
aI145344
aI145536
aI145728
aI145920
aI146112
aI146304
aI146496
aI146688
aI146880
aI147072
aI147264
aI147456
aI147648
aI147840
aI148032
aI148224
aI148416
aI148608
aI148800
aI148992
aI149184
aI149376
aI149568
aI149760
aI149952
aI150144
aI150336
aI150528
aI150720
aI150912
aI151104
aI151296
aI151488
aI151680
aI151872
aI152064
aI152256
aI152448
aI152640
aI152832
aI153024
aI153216
aI153408
aI153600
aI153792
aI153984
aI154176
aI154368
aI154560
aI154752
aI154944
aI155136
aI155328
aI155520
aI155712
aI155904
aI156096
aI156288
aI156480
aI156672
aI156864
aI157056
aI157248
aI157440
aI157632
aI157824
aI158016
aI158208
aI158400
aI158592
aI158784
aI158976
aI159168
aI159360
aI159552
aI159744
aI159936
aI160128
aI160320
aI160512
aI160704
aI160896
aI161088
aI161280
aI161472
aI161664
aI161856
aI162048
aI162240
aI162432
aI162624
aI162816
aI163008
aI163200
aI163392
aI163584
aI163776
aI163968
aI164160
aI164352
aI164544
aI164736
aI164928
aI165120
aI165312
aI165504
aI165696
aI165888
aI166080
aI166272
aI166464
aI166656
aI166848
aI167040
aI167232
aI167424
aI167616
aI167808
aI168000
aI168192
aI168384
aI168576
aI168768
aI168960
aI169152
aI169344
aI169536
aI169728
aI169920
aI170112
aI170304
aI170496
aI170688
aI170880
aI171072
aI171264
aI171456
aI171648
aI171840
aI172032
aI172224
aI172416
aI172608
aI172800
aI172992
aI173184
aI173376
aI173568
aI173760
aI173952
aI174144
aI174336
aI174528
aI174720
aI174912
aI175104
aI175296
aI175488
aI175680
aI175872
aI176064
aI176256
aI176448
aI176640
aI176832
aI177024
aI177216
aI177408
aI177600
aI177792
aI177984
aI178176
aI178368
aI178560
aI178752
aI178944
aI179136
aI179328
aI179520
aI179712
aI179904
aI180096
aI180288
aI180480
aI180672
aI180864
aI181056
aI181248
aI181440
aI181632
aI181824
aI182016
aI182208
aI182400
aI182592
aI182784
aI182976
aI183168
aI183360
aI183552
aI183744
aI183936
aI184128
aI184320
aI184512
aI184704
aI184896
aI185088
aI185280
aI185472
aI185664
aI185856
aI186048
aI186240
aI186432
aI186624
aI186816
aI187008
aI187200
aI187392
aI187584
aI187776
aI187968
aI188160
aI188352
aI188544
aI188736
aI188928
aI189120
aI189312
aI189504
aI189696
aI189888
aI190080
aI190272
aI190464
aI190656
aI190848
aI191040
aI191232
aI191424
aI191616
aI191808
aI192000
aI192192
aI192384
aI192576
aI192768
aI192960
aI193152
aI193344
aI193536
aI193728
aI193920
aI194112
aI194304
aI194496
aI194688
aI194880
aI195072
aI195264
aI195456
aI195648
aI195840
aI196032
aI196224
aI196416
aI196608
aI196800
aI196992
aI197184
aI197376
aI197568
aI197760
aI197952
aI198144
aI198336
aI198528
aI198720
aI198912
aI199104
aI199296
aI199488
aI199680
aI199872
aI200064
asS'best_f'
p3
(lp4
cnumpy.core.multiarray
scalar
p5
(cnumpy
dtype
p6
(S'f8'
p7
I0
I1
tp8
Rp9
(I3
S'<'
p10
NNNI-1
I-1
I0
tp11
bS'p)\x11X\xc5\x86t\xc0'
p12
tp13
Rp14
ag5
(g9
S'\xcb\xa8C#\rcv\xc0'
p15
tp16
Rp17
ag5
(g9
S'1Y\xa1<bEw\xc0'
p18
tp19
Rp20
ag5
(g9
S'\xfc\x9e\xcf~\x8d\xd3x\xc0'
p21
tp22
Rp23
ag5
(g9
S'\x87W\x9b\x8ev\x0by\xc0'
p24
tp25
Rp26
ag26
ag26
ag5
(g9
S'\x89z\xc9l\xcbRy\xc0'
p27
tp28
Rp29
ag5
(g9
S'\xc7\xec\xca$\xe8\x98y\xc0'
p30
tp31
Rp32
ag32
ag32
ag5
(g9
S'\xbb\t_\x0e\xf1\xa1y\xc0'
p33
tp34
Rp35
ag35
ag35
ag35
ag35
ag35
ag35
ag35
ag35
ag35
ag35
ag35
ag35
ag35
ag35
ag35
ag35
ag35
ag35
ag35
ag35
ag35
ag35
ag35
ag35
ag35
ag35
ag35
ag35
ag35
ag35
ag35
ag35
ag35
ag35
ag35
ag35
ag35
ag35
ag35
ag35
ag35
ag35
ag35
ag35
ag35
ag35
ag35
ag35
ag35
ag35
ag35
ag35
ag35
ag35
ag35
ag35
ag35
ag35
ag35
ag35
ag35
ag35
ag35
ag35
ag35
ag35
ag35
ag35
ag35
ag35
ag35
ag35
ag35
ag35
ag35
ag35
ag35
ag35
ag35
ag35
ag35
ag35
ag35
ag35
ag35
ag35
ag35
ag35
ag35
ag35
ag35
ag35
ag35
ag35
ag35
ag35
ag35
ag35
ag35
ag35
ag35
ag35
ag35
ag35
ag35
ag35
ag35
ag35
ag35
ag35
ag35
ag35
ag35
ag35
ag35
ag5
(g9
S'g\xe3\x99\x17\xd6\xa5y\xc0'
p36
tp37
Rp38
ag38
ag38
ag38
ag38
ag38
ag38
ag38
ag38
ag38
ag38
ag38
ag38
ag38
ag38
ag38
ag38
ag38
ag38
ag38
ag38
ag38
ag38
ag38
ag38
ag38
ag38
ag38
ag38
ag38
ag38
ag38
ag38
ag38
ag38
ag38
ag38
ag38
ag38
ag38
ag38
ag38
ag38
ag38
ag38
ag38
ag38
ag38
ag38
ag38
ag38
ag38
ag38
ag38
ag38
ag38
ag38
ag38
ag38
ag38
ag38
ag38
ag38
ag38
ag38
ag38
ag38
ag38
ag38
ag38
ag38
ag38
ag38
ag38
ag38
ag38
ag5
(g9
S'\xedQPB\xc6\xb0y\xc0'
p39
tp40
Rp41
ag41
ag41
ag41
ag41
ag41
ag41
ag41
ag41
ag41
ag41
ag41
ag41
ag41
ag41
ag41
ag41
ag41
ag41
ag41
ag41
ag41
ag41
ag41
ag41
ag41
ag41
ag41
ag41
ag41
ag41
ag41
ag41
ag41
ag41
ag41
ag41
ag41
ag41
ag41
ag41
ag41
ag41
ag41
ag41
ag41
ag41
ag41
ag41
ag41
ag41
ag41
ag41
ag41
ag41
ag41
ag41
ag41
ag41
ag41
ag41
ag41
ag41
ag41
ag41
ag41
ag41
ag41
ag41
ag41
ag41
ag41
ag41
ag41
ag41
ag41
ag41
ag41
ag41
ag41
ag41
ag41
ag41
ag41
ag41
ag41
ag41
ag41
ag41
ag41
ag41
ag41
ag41
ag5
(g9
S'\xf6dZ\xbe\xd2\xb4y\xc0'
p42
tp43
Rp44
ag44
ag44
ag44
ag44
ag44
ag44
ag44
ag44
ag44
ag44
ag44
ag44
ag44
ag44
ag44
ag44
ag44
ag44
ag44
ag44
ag44
ag44
ag44
ag44
ag44
ag44
ag44
ag44
ag44
ag44
ag44
ag44
ag44
ag44
ag44
ag44
ag44
ag44
ag5
(g9
S'L\xe8\xbf\xe8K\xc9y\xc0'
p45
tp46
Rp47
ag47
ag47
ag47
ag47
ag47
ag47
ag47
ag47
ag47
ag47
ag47
ag47
ag47
ag47
ag47
ag47
ag47
ag47
ag47
ag47
ag47
ag47
ag47
ag47
ag47
ag47
ag47
ag47
ag47
ag47
ag47
ag47
ag47
ag47
ag5
(g9
S'K\x1ar\x01\x02\xcby\xc0'
p48
tp49
Rp50
ag50
ag50
ag50
ag50
ag50
ag50
ag50
ag50
ag50
ag50
ag50
ag50
ag50
ag50
ag50
ag50
ag50
ag50
ag50
ag50
ag50
ag50
ag50
ag50
ag50
ag50
ag50
ag50
ag50
ag50
ag50
ag50
ag50
ag50
ag50
ag50
ag50
ag50
ag50
ag50
ag50
ag50
ag50
ag50
ag50
ag50
ag50
ag50
ag50
ag50
ag50
ag50
ag50
ag50
ag50
ag50
ag50
ag50
ag50
ag50
ag50
ag50
ag50
ag50
ag50
ag50
ag50
ag50
ag50
ag50
ag50
ag50
ag50
ag50
ag50
ag50
ag50
ag50
ag50
ag50
ag50
ag50
ag50
ag50
ag50
ag50
ag50
ag50
ag50
ag50
ag50
ag50
ag50
ag50
ag50
ag50
ag50
ag50
ag50
ag50
ag50
ag50
ag50
ag50
ag50
ag50
ag50
ag50
ag50
ag50
ag50
ag50
ag50
ag50
ag50
ag50
ag50
ag50
ag50
ag50
ag50
ag50
ag50
ag50
ag50
ag50
ag50
ag50
ag50
ag50
ag50
ag50
ag50
ag50
ag50
ag50
ag50
ag50
ag50
ag50
ag50
ag50
ag50
ag50
ag50
ag50
ag50
ag50
ag50
ag50
ag50
ag50
ag50
ag50
ag50
ag50
ag50
ag50
ag50
ag50
ag50
ag50
ag50
ag50
ag50
ag50
ag50
ag50
ag50
ag50
ag50
ag50
ag50
ag50
ag50
ag50
ag50
ag50
ag50
ag50
ag50
ag50
ag50
ag50
ag50
ag50
ag50
ag50
ag50
ag50
ag50
ag50
ag50
ag50
ag50
ag50
ag50
ag50
ag50
ag50
ag50
ag50
ag50
ag50
ag50
ag50
ag50
ag50
ag50
ag50
ag50
ag50
ag50
ag50
ag50
ag50
ag50
ag50
ag50
ag50
ag50
ag50
ag50
ag50
ag50
ag50
ag50
ag50
ag50
ag50
ag50
ag50
ag50
ag50
ag50
ag50
ag50
ag50
ag50
ag50
ag50
ag50
ag50
ag50
ag50
ag50
ag50
ag50
ag50
ag50
ag50
ag50
ag50
ag50
ag50
ag50
ag50
ag50
ag50
ag50
ag50
ag50
ag50
ag50
ag50
ag50
ag50
ag50
ag50
ag50
ag50
ag50
ag50
ag50
ag50
ag50
ag50
ag50
ag50
ag50
ag50
ag50
ag50
ag50
ag50
ag50
ag50
ag50
ag50
ag50
ag50
ag50
ag50
ag50
ag50
ag50
ag50
ag50
ag50
ag50
ag50
ag50
ag50
ag50
ag50
ag50
ag50
ag50
ag50
ag50
ag50
ag50
ag50
ag50
ag50
ag50
ag50
ag50
ag50
ag50
ag50
ag50
ag50
ag50
ag50
ag50
ag50
ag50
ag50
ag50
ag50
ag50
ag50
ag50
ag50
ag50
ag50
ag50
ag50
ag50
ag50
ag50
ag50
ag50
ag50
ag50
ag50
ag50
ag50
ag50
ag50
ag50
ag50
ag50
ag50
ag50
ag50
ag50
ag50
ag50
ag50
ag50
ag50
ag50
ag50
ag50
ag50
ag50
ag50
ag50
ag50
ag50
ag50
ag50
ag50
ag50
ag50
ag50
ag50
ag50
ag50
ag50
ag50
ag50
ag50
ag50
ag50
ag50
ag50
ag50
ag50
ag50
ag50
ag50
ag50
ag50
ag50
ag50
ag50
ag50
ag50
ag50
ag50
ag50
ag50
ag50
ag50
ag50
ag50
ag50
ag50
ag50
ag50
ag50
ag50
ag50
ag50
ag50
ag50
ag50
ag50
ag50
ag50
ag50
ag50
ag50
ag50
ag50
ag50
ag50
ag50
ag50
ag50
ag50
ag50
ag50
ag50
ag50
ag50
ag50
ag50
ag50
ag50
ag50
ag50
ag50
ag50
ag50
ag50
ag50
ag50
ag50
ag50
ag50
ag50
ag50
ag50
ag50
ag50
ag50
ag50
ag50
ag50
ag50
ag50
ag50
ag50
ag50
ag50
ag50
ag50
ag50
ag50
ag50
ag50
ag50
ag50
ag50
ag50
ag50
ag50
ag50
ag50
ag50
ag50
ag50
ag50
ag50
ag50
ag50
ag50
ag50
ag50
ag50
ag50
ag50
ag50
ag50
ag50
ag50
ag50
ag50
ag50
ag50
ag50
ag50
ag50
ag50
ag50
ag50
ag50
ag50
ag50
ag50
ag50
ag50
ag50
ag50
ag50
ag50
ag50
ag50
ag50
ag50
ag50
ag50
ag50
ag50
ag50
ag50
ag50
ag50
ag50
ag50
ag50
ag50
ag50
ag50
ag50
ag50
ag50
ag50
ag50
ag50
ag50
ag50
ag50
ag50
ag50
ag50
ag50
ag50
ag50
ag50
ag50
ag50
ag50
ag50
ag50
ag50
ag50
ag50
ag50
ag50
ag50
ag50
ag50
ag50
ag50
ag50
ag50
ag50
ag50
ag50
ag50
ag50
ag50
ag50
ag50
ag50
ag50
ag50
ag50
ag50
ag50
ag50
ag50
ag50
ag50
ag50
ag50
ag50
ag50
ag50
ag50
ag50
ag50
ag50
ag50
ag50
ag50
ag50
ag50
ag50
ag50
ag50
ag50
ag50
ag50
ag50
ag50
ag50
ag50
ag50
ag50
ag50
ag50
ag50
ag50
ag50
ag50
ag50
ag50
ag50
ag50
ag50
ag50
ag50
ag50
ag50
ag50
ag50
ag50
ag50
ag50
ag50
ag50
ag50
ag50
ag50
ag50
ag50
ag50
ag50
ag50
ag50
ag50
ag50
ag50
ag50
ag50
ag50
ag50
ag50
ag50
ag50
ag50
ag50
ag50
ag50
ag50
ag50
ag50
ag50
ag50
ag50
ag50
ag50
ag50
ag50
ag50
asS'best_P'
p51
(lp52
(iptreeopt.tree
PTree
p53
(dp54
S'root'
p55
ccopy_reg
_reconstructor
p56
(cptreeopt.tree
Feature
p57
c__builtin__
object
p58
Ntp59
Rp60
(dp61
S'index'
p62
I2
sS'r'
p63
g56
(g57
g58
Ntp64
Rp65
(dp66
g62
I1
sg63
g56
(cptreeopt.tree
Action
p67
g58
Ntp68
Rp69
(dp70
g63
NsS'is_feature'
p71
I00
sS'value'
p72
g5
(g9
S'Y\xa5(\x91Up\xdc?'
p73
tp74
Rp75
sS'l'
p76
NsbsS'name'
p77
S'Day'
p78
sS'threshold'
p79
g5
(g9
S'\xecYc\x8d\xb7\xebB@'
p80
tp81
Rp82
sg76
g56
(g67
g58
Ntp83
Rp84
(dp85
g63
Nsg71
I00
sg72
g5
(g9
S'\x00\x00\x00\x00\x00\x00\xf0?'
p86
tp87
Rp88
sg76
Nsbsg71
I01
sbsg77
S'Inflow'
p89
sg79
g5
(g9
S'\x12\xde\x7f\xc7\xec\xde"@'
p90
tp91
Rp92
sg76
g56
(g57
g58
Ntp93
Rp94
(dp95
g62
I0
sg63
g56
(g57
g58
Ntp96
Rp97
(dp98
g62
I1
sg63
g56
(g67
g58
Ntp99
Rp100
(dp101
g63
Nsg71
I00
sg72
g5
(g9
S'\xa9&\xfb}U1\x95?'
p102
tp103
Rp104
sg76
Nsbsg77
g78
sg79
g5
(g9
S'\x848\x0c\x9f\x06\xb9^@'
p105
tp106
Rp107
sg76
g56
(g67
g58
Ntp108
Rp109
(dp110
g63
Nsg71
I00
sg72
g5
(g9
S'>\xd4\xd7\x0c\x1a\x00\xeb?'
p111
tp112
Rp113
sg76
Nsbsg71
I01
sbsg77
S'Storage'
p114
sg79
g5
(g9
S';x\xe4\xa8\x9bFP@'
p115
tp116
Rp117
sg76
g56
(g67
g58
Ntp118
Rp119
(dp120
g63
Nsg71
I00
sg72
g5
(g9
S'\xbe\x82\xb7\xa3\xfbo\xeb?'
p121
tp122
Rp123
sg76
Nsbsg71
I01
sbsg71
I01
sbsS'L'
p124
(lp125
g60
ag94
ag119
ag97
ag109
ag100
ag65
ag84
ag69
asS'N'
p126
I9
sba(iptreeopt.tree
PTree
p127
(dp128
g55
g56
(g57
g58
Ntp129
Rp130
(dp131
g62
I2
sg63
g56
(g57
g58
Ntp132
Rp133
(dp134
g62
I1
sg63
g56
(g67
g58
Ntp135
Rp136
(dp137
g63
Nsg71
I00
sg72
g5
(g9
S'\x96\xc6YJ6\x16\xdb?'
p138
tp139
Rp140
sg76
Nsbsg77
g78
sg79
g5
(g9
S'\x00\x00\x00\x00\x00\x00\xf0?'
p141
tp142
Rp143
sg76
g56
(g67
g58
Ntp144
Rp145
(dp146
g63
Nsg71
I00
sg72
g5
(g9
S'J\x0bcWT\x9b\xef?'
p147
tp148
Rp149
sg76
Nsbsg71
I01
sbsg77
g89
sg79
g5
(g9
S'\x98\xcex\x85\xecq @'
p150
tp151
Rp152
sg76
g56
(g57
g58
Ntp153
Rp154
(dp155
g62
I1
sg63
g56
(g67
g58
Ntp156
Rp157
(dp158
g63
Nsg71
I00
sg72
g5
(g9
S'\xae\x9c"\xcc\xd4\xe8\x84?'
p159
tp160
Rp161
sg76
Nsbsg77
g78
sg79
g5
(g9
S'}G\x01\x9b\x95\xbfe@'
p162
tp163
Rp164
sg76
g56
(g67
g58
Ntp165
Rp166
(dp167
g63
Nsg71
I00
sg72
g5
(g9
S' \x11\xa2\x98\xb7\x10\xe8?'
p168
tp169
Rp170
sg76
Nsbsg71
I01
sbsg71
I01
sbsg124
(lp171
g130
ag154
ag166
ag157
ag133
ag145
ag136
asg126
I7
sba(iptreeopt.tree
PTree
p172
(dp173
g55
g56
(g57
g58
Ntp174
Rp175
(dp176
g62
I2
sg63
g56
(g57
g58
Ntp177
Rp178
(dp179
g62
I1
sg63
g56
(g67
g58
Ntp180
Rp181
(dp182
g63
Nsg71
I00
sg72
g5
(g9
S'j\xb1\x93R61\xd6?'
p183
tp184
Rp185
sg76
Nsbsg77
g78
sg79
g5
(g9
S'\xa7\x93=\x99\x08\x042@'
p186
tp187
Rp188
sg76
g56
(g67
g58
Ntp189
Rp190
(dp191
g63
Nsg71
I00
sg72
g5
(g9
S'\x1e_#8v\xdd\xea?'
p192
tp193
Rp194
sg76
Nsbsg71
I01
sbsg77
g89
sg79
g5
(g9
S'\x96*\xfd\xe0M\x9a%@'
p195
tp196
Rp197
sg76
g56
(g57
g58
Ntp198
Rp199
(dp200
g62
I1
sg63
g56
(g67
g58
Ntp201
Rp202
(dp203
g63
Nsg71
I00
sg72
g5
(g9
S'\x84\x95\xb7W+%\x8a?'
p204
tp205
Rp206
sg76
Nsbsg77
g78
sg79
g5
(g9
S'M)\xf6\x1a|\xe1i@'
p207
tp208
Rp209
sg76
g56
(g67
g58
Ntp210
Rp211
(dp212
g63
Nsg71
I00
sg72
g5
(g9
S'\xfd\x00mc,"\xe5?'
p213
tp214
Rp215
sg76
Nsbsg71
I01
sbsg71
I01
sbsg124
(lp216
g175
ag199
ag211
ag202
ag178
ag190
ag181
asg126
I7
sba(iptreeopt.tree
PTree
p217
(dp218
g55
g56
(g57
g58
Ntp219
Rp220
(dp221
g62
I0
sg63
g56
(g67
g58
Ntp222
Rp223
(dp224
g63
Nsg71
I00
sg72
g5
(g9
S'4\x91\xa1N\xa0h\xe1?'
p225
tp226
Rp227
sg76
Nsbsg77
g114
sg79
g5
(g9
S'W\x1a\x86\xc0\xd7\x96o@'
p228
tp229
Rp230
sg76
g56
(g57
g58
Ntp231
Rp232
(dp233
g62
I1
sg63
g56
(g67
g58
Ntp234
Rp235
(dp236
g63
Nsg71
I00
sg72
g5
(g9
S'\xf8z;:.\x07\x82?'
p237
tp238
Rp239
sg76
Nsbsg77
g78
sg79
g5
(g9
S'\xa3&\xbb@)\x8dZ@'
p240
tp241
Rp242
sg76
g56
(g67
g58
Ntp243
Rp244
(dp245
g63
Nsg71
I00
sg72
g5
(g9
S'\x00\x00\x00\x00\x00\x00\xf0?'
p246
tp247
Rp248
sg76
Nsbsg71
I01
sbsg71
I01
sbsg124
(lp249
g220
ag232
ag244
ag235
ag223
asg126
I5
sba(iptreeopt.tree
PTree
p250
(dp251
g55
g56
(g57
g58
Ntp252
Rp253
(dp254
g62
I0
sg63
g56
(g67
g58
Ntp255
Rp256
(dp257
g63
Nsg71
I00
sg72
g5
(g9
S'\xe0\nO\xbe\xaa\xc7\xe3?'
p258
tp259
Rp260
sg76
Nsbsg77
g114
sg79
g5
(g9
S'\x00\x00\x00\x00\x00\xe0p@'
p261
tp262
Rp263
sg76
g56
(g57
g58
Ntp264
Rp265
(dp266
g62
I2
sg63
g56
(g57
g58
Ntp267
Rp268
(dp269
g62
I1
sg63
g56
(g67
g58
Ntp270
Rp271
(dp272
g63
Nsg71
I00
sg72
g5
(g9
S'#\xecg\xc7T\xe3\x90?'
p273
tp274
Rp275
sg76
Nsbsg77
g78
sg79
g5
(g9
S'\r\x11\xb3g\xd2\x05j@'
p276
tp277
Rp278
sg76
g56
(g67
g58
Ntp279
Rp280
(dp281
g63
Nsg71
I00
sg72
g5
(g9
S'\xfa?\xa5\xb1O\xb7\xee?'
p282
tp283
Rp284
sg76
Nsbsg71
I01
sbsg77
g89
sg79
g5
(g9
S'O\x00&.\x9f\x00\x17@'
p285
tp286
Rp287
sg76
g56
(g57
g58
Ntp288
Rp289
(dp290
g62
I1
sg63
g56
(g67
g58
Ntp291
Rp292
(dp293
g63
Nsg71
I00
sg72
g5
(g9
S'\x00\x00\x00\x00\x00\x00\x00\x00'
p294
tp295
Rp296
sg76
Nsbsg77
g78
sg79
g5
(g9
S'?0?\xec\x16\xfa`@'
p297
tp298
Rp299
sg76
g56
(g67
g58
Ntp300
Rp301
(dp302
g63
Nsg71
I00
sg72
g5
(g9
S'*8jX\xaeg\xe6?'
p303
tp304
Rp305
sg76
Nsbsg71
I01
sbsg71
I01
sbsg71
I01
sbsg124
(lp306
g253
ag265
ag289
ag301
ag292
ag268
ag280
ag271
ag256
asg126
I9
sbag250
ag250
a(iptreeopt.tree
PTree
p307
(dp308
g55
g56
(g57
g58
Ntp309
Rp310
(dp311
g62
I0
sg63
g56
(g67
g58
Ntp312
Rp313
(dp314
g63
Nsg71
I00
sg72
g5
(g9
S'q\xaev\x0c5\xfe\xe6?'
p315
tp316
Rp317
sg76
Nsbsg77
g114
sg79
g5
(g9
S'\x95\xd3\xfa\xf5L\xd5p@'
p318
tp319
Rp320
sg76
g56
(g57
g58
Ntp321
Rp322
(dp323
g62
I1
sg63
g56
(g67
g58
Ntp324
Rp325
(dp326
g63
Nsg71
I00
sg72
g5
(g9
S'\xa0\xe5;\xf5\x87\x96t?'
p327
tp328
Rp329
sg76
Nsbsg77
g78
sg79
g5
(g9
S'\xb5+\x08\xc7\x9cud@'
p330
tp331
Rp332
sg76
g56
(g67
g58
Ntp333
Rp334
(dp335
g63
Nsg71
I00
sg72
g5
(g9
S'\x02\x9a\xf4\xecbu\xe5?'
p336
tp337
Rp338
sg76
Nsbsg71
I01
sbsg71
I01
sbsg124
(lp339
g310
ag322
ag334
ag325
ag313
asg126
I5
sba(iptreeopt.tree
PTree
p340
(dp341
g55
g56
(g57
g58
Ntp342
Rp343
(dp344
g62
I0
sg63
g56
(g67
g58
Ntp345
Rp346
(dp347
g63
Nsg71
I00
sg72
g5
(g9
S'\xf9\x1c\x1cN?9\xe8?'
p348
tp349
Rp350
sg76
Nsbsg77
g114
sg79
g5
(g9
S'\x00\x00\x00\x00\x00\xe0p@'
p351
tp352
Rp353
sg76
g56
(g57
g58
Ntp354
Rp355
(dp356
g62
I2
sg63
g56
(g57
g58
Ntp357
Rp358
(dp359
g62
I1
sg63
g56
(g67
g58
Ntp360
Rp361
(dp362
g63
Nsg71
I00
sg72
g5
(g9
S'\xd3Uz\x85u\xdd\xa1?'
p363
tp364
Rp365
sg76
Nsbsg77
g78
sg79
g5
(g9
S'\x17\xees\xbc\xbd\xe3V@'
p366
tp367
Rp368
sg76
g56
(g67
g58
Ntp369
Rp370
(dp371
g63
Nsg71
I00
sg72
g5
(g9
S'\xae\x86\xaa\xaemY\xee?'
p372
tp373
Rp374
sg76
Nsbsg71
I01
sbsg77
g89
sg79
g5
(g9
S'~U\xcb\x80\xc2$\x0c@'
p375
tp376
Rp377
sg76
g56
(g57
g58
Ntp378
Rp379
(dp380
g62
I1
sg63
g56
(g67
g58
Ntp381
Rp382
(dp383
g63
Nsg71
I00
sg72
g5
(g9
S'\x00\x00\x00\x00\x00\x00\x00\x00'
p384
tp385
Rp386
sg76
Nsbsg77
g78
sg79
g5
(g9
S't\x80~#l~e@'
p387
tp388
Rp389
sg76
g56
(g67
g58
Ntp390
Rp391
(dp392
g63
Nsg71
I00
sg72
g5
(g9
S'\x10K\x81w\x96\n\xe3?'
p393
tp394
Rp395
sg76
Nsbsg71
I01
sbsg71
I01
sbsg71
I01
sbsg124
(lp396
g343
ag355
ag379
ag391
ag382
ag358
ag370
ag361
ag346
asg126
I9
sbag340
ag340
a(iptreeopt.tree
PTree
p397
(dp398
g55
g56
(g57
g58
Ntp399
Rp400
(dp401
g62
I0
sg63
g56
(g67
g58
Ntp402
Rp403
(dp404
g63
Nsg71
I00
sg72
g5
(g9
S'\xb3]\x97\x1d\xe4[\xe8?'
p405
tp406
Rp407
sg76
Nsbsg77
g114
sg79
g5
(g9
S'\x00\x00\x00\x00\x00\xe0p@'
p408
tp409
Rp410
sg76
g56
(g57
g58
Ntp411
Rp412
(dp413
g62
I2
sg63
g56
(g57
g58
Ntp414
Rp415
(dp416
g62
I1
sg63
g56
(g67
g58
Ntp417
Rp418
(dp419
g63
Nsg71
I00
sg72
g5
(g9
S'\xb4*\xc74\x11)\xb9?'
p420
tp421
Rp422
sg76
Nsbsg77
g78
sg79
g5
(g9
S'\xfed\x19\x86g\xedJ@'
p423
tp424
Rp425
sg76
g56
(g67
g58
Ntp426
Rp427
(dp428
g63
Nsg71
I00
sg72
g5
(g9
S'\x18%\x82\xec\xbf\xe5\xe9?'
p429
tp430
Rp431
sg76
Nsbsg71
I01
sbsg77
g89
sg79
g5
(g9
S'~U\xcb\x80\xc2$\x0c@'
p432
tp433
Rp434
sg76
g56
(g57
g58
Ntp435
Rp436
(dp437
g62
I1
sg63
g56
(g67
g58
Ntp438
Rp439
(dp440
g63
Nsg71
I00
sg72
g5
(g9
S'\x00\x00\x00\x00\x00\x00\x00\x00'
p441
tp442
Rp443
sg76
Nsbsg77
g78
sg79
g5
(g9
S'F\xdf\xaa9w\xadg@'
p444
tp445
Rp446
sg76
g56
(g67
g58
Ntp447
Rp448
(dp449
g63
Nsg71
I00
sg72
g5
(g9
S'\xba\n\xc6\xa3#\x9f\xe1?'
p450
tp451
Rp452
sg76
Nsbsg71
I01
sbsg71
I01
sbsg71
I01
sbsg124
(lp453
g400
ag412
ag436
ag448
ag439
ag415
ag427
ag418
ag403
asg126
I9
sbag397
ag397
ag397
ag397
ag397
ag397
ag397
ag397
ag397
ag397
ag397
ag397
ag397
ag397
ag397
ag397
ag397
ag397
ag397
ag397
ag397
ag397
ag397
ag397
ag397
ag397
ag397
ag397
ag397
ag397
ag397
ag397
ag397
ag397
ag397
ag397
ag397
ag397
ag397
ag397
ag397
ag397
ag397
ag397
ag397
ag397
ag397
ag397
ag397
ag397
ag397
ag397
ag397
ag397
ag397
ag397
ag397
ag397
ag397
ag397
ag397
ag397
ag397
ag397
ag397
ag397
ag397
ag397
ag397
ag397
ag397
ag397
ag397
ag397
ag397
ag397
ag397
ag397
ag397
ag397
ag397
ag397
ag397
ag397
ag397
ag397
ag397
ag397
ag397
ag397
ag397
ag397
ag397
ag397
ag397
ag397
ag397
ag397
ag397
ag397
ag397
ag397
ag397
ag397
ag397
ag397
ag397
ag397
ag397
ag397
ag397
ag397
ag397
ag397
ag397
a(iptreeopt.tree
PTree
p454
(dp455
g55
g56
(g57
g58
Ntp456
Rp457
(dp458
g62
I0
sg63
g56
(g67
g58
Ntp459
Rp460
(dp461
g63
Nsg71
I00
sg72
g5
(g9
S'\xe2\x85Z\x18\xbe\x9a\xe8?'
p462
tp463
Rp464
sg76
Nsbsg77
g114
sg79
g5
(g9
S'\x00\x00\x00\x00\x00\xe0p@'
p465
tp466
Rp467
sg76
g56
(g57
g58
Ntp468
Rp469
(dp470
g62
I2
sg63
g56
(g57
g58
Ntp471
Rp472
(dp473
g62
I1
sg63
g56
(g67
g58
Ntp474
Rp475
(dp476
g63
Nsg71
I00
sg72
g5
(g9
S'\xb4*\xc74\x11)\xb9?'
p477
tp478
Rp479
sg76
Nsbsg77
g78
sg79
g5
(g9
S'(\xbe}\xe4\xcb @@'
p480
tp481
Rp482
sg76
g56
(g67
g58
Ntp483
Rp484
(dp485
g63
Nsg71
I00
sg72
g5
(g9
S'T\x05\xd0k\xdcf\xe9?'
p486
tp487
Rp488
sg76
Nsbsg71
I01
sbsg77
g89
sg79
g5
(g9
S'A ?\x95\xe26\x14@'
p489
tp490
Rp491
sg76
g56
(g57
g58
Ntp492
Rp493
(dp494
g62
I1
sg63
g56
(g67
g58
Ntp495
Rp496
(dp497
g63
Nsg71
I00
sg72
g5
(g9
S'\x00\x00\x00\x00\x00\x00\x00\x00'
p498
tp499
Rp500
sg76
Nsbsg77
g78
sg79
g5
(g9
S'\xd9%\xab\x9a\x9e\xd9e@'
p501
tp502
Rp503
sg76
g56
(g67
g58
Ntp504
Rp505
(dp506
g63
Nsg71
I00
sg72
g5
(g9
S'\x8e\x11\xcb\xb2\xa3\x80\xe2?'
p507
tp508
Rp509
sg76
Nsbsg71
I01
sbsg71
I01
sbsg71
I01
sbsg124
(lp510
g457
ag469
ag493
ag505
ag496
ag472
ag484
ag475
ag460
asg126
I9
sbag454
ag454
ag454
ag454
ag454
ag454
ag454
ag454
ag454
ag454
ag454
ag454
ag454
ag454
ag454
ag454
ag454
ag454
ag454
ag454
ag454
ag454
ag454
ag454
ag454
ag454
ag454
ag454
ag454
ag454
ag454
ag454
ag454
ag454
ag454
ag454
ag454
ag454
ag454
ag454
ag454
ag454
ag454
ag454
ag454
ag454
ag454
ag454
ag454
ag454
ag454
ag454
ag454
ag454
ag454
ag454
ag454
ag454
ag454
ag454
ag454
ag454
ag454
ag454
ag454
ag454
ag454
ag454
ag454
ag454
ag454
ag454
ag454
ag454
ag454
a(iptreeopt.tree
PTree
p511
(dp512
g55
g56
(g57
g58
Ntp513
Rp514
(dp515
g62
I0
sg63
g56
(g67
g58
Ntp516
Rp517
(dp518
g63
Nsg71
I00
sg72
g5
(g9
S'\xa6\xe0\xe8^\xc7\xf2\xe8?'
p519
tp520
Rp521
sg76
Nsbsg77
g114
sg79
g5
(g9
S'\x00\x00\x00\x00\x00\xe0p@'
p522
tp523
Rp524
sg76
g56
(g57
g58
Ntp525
Rp526
(dp527
g62
I2
sg63
g56
(g57
g58
Ntp528
Rp529
(dp530
g62
I1
sg63
g56
(g67
g58
Ntp531
Rp532
(dp533
g63
Nsg71
I00
sg72
g5
(g9
S'\xd8\xa6\x1f\x08\xdc%\x8d?'
p534
tp535
Rp536
sg76
Nsbsg77
g78
sg79
g5
(g9
S';\x85\x9c\x87\x8a+V@'
p537
tp538
Rp539
sg76
g56
(g67
g58
Ntp540
Rp541
(dp542
g63
Nsg71
I00
sg72
g5
(g9
S'\xa6\x9b\xed\xbaX\x05\xea?'
p543
tp544
Rp545
sg76
Nsbsg71
I01
sbsg77
g89
sg79
g5
(g9
S'M\xbcYcT3\x13@'
p546
tp547
Rp548
sg76
g56
(g57
g58
Ntp549
Rp550
(dp551
g62
I1
sg63
g56
(g67
g58
Ntp552
Rp553
(dp554
g63
Nsg71
I00
sg72
g5
(g9
S'\x00\x00\x00\x00\x00\x00\x00\x00'
p555
tp556
Rp557
sg76
Nsbsg77
g78
sg79
g5
(g9
S'C\xc7>\xd8\xc7\xd6e@'
p558
tp559
Rp560
sg76
g56
(g67
g58
Ntp561
Rp562
(dp563
g63
Nsg71
I00
sg72
g5
(g9
S'\x8e\x11\xcb\xb2\xa3\x80\xe2?'
p564
tp565
Rp566
sg76
Nsbsg71
I01
sbsg71
I01
sbsg71
I01
sbsg124
(lp567
g514
ag526
ag550
ag562
ag553
ag529
ag541
ag532
ag517
asg126
I9
sbag511
ag511
ag511
ag511
ag511
ag511
ag511
ag511
ag511
ag511
ag511
ag511
ag511
ag511
ag511
ag511
ag511
ag511
ag511
ag511
ag511
ag511
ag511
ag511
ag511
ag511
ag511
ag511
ag511
ag511
ag511
ag511
ag511
ag511
ag511
ag511
ag511
ag511
ag511
ag511
ag511
ag511
ag511
ag511
ag511
ag511
ag511
ag511
ag511
ag511
ag511
ag511
ag511
ag511
ag511
ag511
ag511
ag511
ag511
ag511
ag511
ag511
ag511
ag511
ag511
ag511
ag511
ag511
ag511
ag511
ag511
ag511
ag511
ag511
ag511
ag511
ag511
ag511
ag511
ag511
ag511
ag511
ag511
ag511
ag511
ag511
ag511
ag511
ag511
ag511
ag511
ag511
a(iptreeopt.tree
PTree
p568
(dp569
g55
g56
(g57
g58
Ntp570
Rp571
(dp572
g62
I2
sg63
g56
(g57
g58
Ntp573
Rp574
(dp575
g62
I1
sg63
g56
(g67
g58
Ntp576
Rp577
(dp578
g63
Nsg71
I00
sg72
g5
(g9
S'\x0e\x1c\xda=\xad(\xa4?'
p579
tp580
Rp581
sg76
Nsbsg77
g78
sg79
g5
(g9
S'\xe6^?\x1f\xbfI[@'
p582
tp583
Rp584
sg76
g56
(g67
g58
Ntp585
Rp586
(dp587
g63
Nsg71
I00
sg72
g5
(g9
S'\xc4\xd0@\xf6\xbeL\xe5?'
p588
tp589
Rp590
sg76
Nsbsg71
I01
sbsg77
g89
sg79
g5
(g9
S'H\xf9g\x06\x03\xf0\x13@'
p591
tp592
Rp593
sg76
g56
(g57
g58
Ntp594
Rp595
(dp596
g62
I0
sg63
g56
(g67
g58
Ntp597
Rp598
(dp599
g63
Nsg71
I00
sg72
g5
(g9
S'`d\x8b\x91}\x0f\xec?'
p600
tp601
Rp602
sg76
Nsbsg77
g114
sg79
g5
(g9
S'\x00\x00\x00\x00\x00\xe0p@'
p603
tp604
Rp605
sg76
g56
(g57
g58
Ntp606
Rp607
(dp608
g62
I1
sg63
g56
(g67
g58
Ntp609
Rp610
(dp611
g63
Nsg71
I00
sg72
g5
(g9
S'\x00\x00\x00\x00\x00\x00\x00\x00'
p612
tp613
Rp614
sg76
Nsbsg77
g78
sg79
g5
(g9
S'\xee\x13R\x06\xabzc@'
p615
tp616
Rp617
sg76
g56
(g67
g58
Ntp618
Rp619
(dp620
g63
Nsg71
I00
sg72
g5
(g9
S'\x06\x94\xb4\xaf\xd3\x0c\xe4?'
p621
tp622
Rp623
sg76
Nsbsg71
I01
sbsg71
I01
sbsg71
I01
sbsg124
(lp624
g571
ag595
ag607
ag619
ag610
ag598
ag574
ag586
ag577
asg126
I9
sbag568
ag568
ag568
ag568
ag568
ag568
ag568
ag568
ag568
ag568
ag568
ag568
ag568
ag568
ag568
ag568
ag568
ag568
ag568
ag568
ag568
ag568
ag568
ag568
ag568
ag568
ag568
ag568
ag568
ag568
ag568
ag568
ag568
ag568
ag568
ag568
ag568
ag568
a(iptreeopt.tree
PTree
p625
(dp626
g55
g56
(g57
g58
Ntp627
Rp628
(dp629
g62
I2
sg63
g56
(g57
g58
Ntp630
Rp631
(dp632
g62
I1
sg63
g56
(g67
g58
Ntp633
Rp634
(dp635
g63
Nsg71
I00
sg72
g5
(g9
S'\x00\x00\x00\x00\x00\x00\x00\x00'
p636
tp637
Rp638
sg76
Nsbsg77
g78
sg79
g5
(g9
S'\x99x\x9cD\x1b\x1e`@'
p639
tp640
Rp641
sg76
g56
(g67
g58
Ntp642
Rp643
(dp644
g63
Nsg71
I00
sg72
g5
(g9
S'\x00\x00\x00\x00\x00\x00\xf0?'
p645
tp646
Rp647
sg76
Nsbsg71
I01
sbsg77
g89
sg79
g5
(g9
S'T\xd9Kg<\xd1\x0f@'
p648
tp649
Rp650
sg76
g56
(g57
g58
Ntp651
Rp652
(dp653
g62
I0
sg63
g56
(g67
g58
Ntp654
Rp655
(dp656
g63
Nsg71
I00
sg72
g5
(g9
S'\x00\x00\x00\x00\x00\x00\xf0?'
p657
tp658
Rp659
sg76
Nsbsg77
g114
sg79
g5
(g9
S'\x00\x00\x00\x00\x00\xe0p@'
p660
tp661
Rp662
sg76
g56
(g57
g58
Ntp663
Rp664
(dp665
g62
I1
sg63
g56
(g67
g58
Ntp666
Rp667
(dp668
g63
Nsg71
I00
sg72
g5
(g9
S'$\xaa\xf5Y"\xe0\x94?'
p669
tp670
Rp671
sg76
Nsbsg77
g78
sg79
g5
(g9
S'\xde\xf2\x15_\xbb\xf3e@'
p672
tp673
Rp674
sg76
g56
(g67
g58
Ntp675
Rp676
(dp677
g63
Nsg71
I00
sg72
g5
(g9
S'\xcb\xe6\xc0.\x04\xb7\xe1?'
p678
tp679
Rp680
sg76
Nsbsg71
I01
sbsg71
I01
sbsg71
I01
sbsg124
(lp681
g628
ag652
ag664
ag676
ag667
ag655
ag631
ag643
ag634
asg126
I9
sbag625
ag625
ag625
ag625
ag625
ag625
ag625
ag625
ag625
ag625
ag625
ag625
ag625
ag625
ag625
ag625
ag625
ag625
ag625
ag625
ag625
ag625
ag625
ag625
ag625
ag625
ag625
ag625
ag625
ag625
ag625
ag625
ag625
ag625
a(iptreeopt.tree
PTree
p682
(dp683
g55
g56
(g57
g58
Ntp684
Rp685
(dp686
g62
I2
sg63
g56
(g57
g58
Ntp687
Rp688
(dp689
g62
I1
sg63
g56
(g67
g58
Ntp690
Rp691
(dp692
g63
Nsg71
I00
sg72
g5
(g9
S'\x00\x00\x00\x00\x00\x00\x00\x00'
p693
tp694
Rp695
sg76
Nsbsg77
g78
sg79
g5
(g9
S'\xb4/\x90\x0b\xb3\xc7F@'
p696
tp697
Rp698
sg76
g56
(g67
g58
Ntp699
Rp700
(dp701
g63
Nsg71
I00
sg72
g5
(g9
S'\x00\x00\x00\x00\x00\x00\xf0?'
p702
tp703
Rp704
sg76
Nsbsg71
I01
sbsg77
g89
sg79
g5
(g9
S'Q\xfa\xc4[_G\x10@'
p705
tp706
Rp707
sg76
g56
(g57
g58
Ntp708
Rp709
(dp710
g62
I0
sg63
g56
(g67
g58
Ntp711
Rp712
(dp713
g63
Nsg71
I00
sg72
g5
(g9
S'\x00\x00\x00\x00\x00\x00\xf0?'
p714
tp715
Rp716
sg76
Nsbsg77
g114
sg79
g5
(g9
S'\x00\x00\x00\x00\x00\xe0p@'
p717
tp718
Rp719
sg76
g56
(g57
g58
Ntp720
Rp721
(dp722
g62
I1
sg63
g56
(g67
g58
Ntp723
Rp724
(dp725
g63
Nsg71
I00
sg72
g5
(g9
S'\x00\x00\x00\x00\x00\x00\x00\x00'
p726
tp727
Rp728
sg76
Nsbsg77
g78
sg79
g5
(g9
S'\xcd\xb2\xd2\xad\xd6\x9ff@'
p729
tp730
Rp731
sg76
g56
(g67
g58
Ntp732
Rp733
(dp734
g63
Nsg71
I00
sg72
g5
(g9
S'\x14\xd4\xb1\xee\xd2\xed\xe1?'
p735
tp736
Rp737
sg76
Nsbsg71
I01
sbsg71
I01
sbsg71
I01
sbsg124
(lp738
g685
ag709
ag721
ag733
ag724
ag712
ag688
ag700
ag691
asg126
I9
sbag682
ag682
ag682
ag682
ag682
ag682
ag682
ag682
ag682
ag682
ag682
ag682
ag682
ag682
ag682
ag682
ag682
ag682
ag682
ag682
ag682
ag682
ag682
ag682
ag682
ag682
ag682
ag682
ag682
ag682
ag682
ag682
ag682
ag682
ag682
ag682
ag682
ag682
ag682
ag682
ag682
ag682
ag682
ag682
ag682
ag682
ag682
ag682
ag682
ag682
ag682
ag682
ag682
ag682
ag682
ag682
ag682
ag682
ag682
ag682
ag682
ag682
ag682
ag682
ag682
ag682
ag682
ag682
ag682
ag682
ag682
ag682
ag682
ag682
ag682
ag682
ag682
ag682
ag682
ag682
ag682
ag682
ag682
ag682
ag682
ag682
ag682
ag682
ag682
ag682
ag682
ag682
ag682
ag682
ag682
ag682
ag682
ag682
ag682
ag682
ag682
ag682
ag682
ag682
ag682
ag682
ag682
ag682
ag682
ag682
ag682
ag682
ag682
ag682
ag682
ag682
ag682
ag682
ag682
ag682
ag682
ag682
ag682
ag682
ag682
ag682
ag682
ag682
ag682
ag682
ag682
ag682
ag682
ag682
ag682
ag682
ag682
ag682
ag682
ag682
ag682
ag682
ag682
ag682
ag682
ag682
ag682
ag682
ag682
ag682
ag682
ag682
ag682
ag682
ag682
ag682
ag682
ag682
ag682
ag682
ag682
ag682
ag682
ag682
ag682
ag682
ag682
ag682
ag682
ag682
ag682
ag682
ag682
ag682
ag682
ag682
ag682
ag682
ag682
ag682
ag682
ag682
ag682
ag682
ag682
ag682
ag682
ag682
ag682
ag682
ag682
ag682
ag682
ag682
ag682
ag682
ag682
ag682
ag682
ag682
ag682
ag682
ag682
ag682
ag682
ag682
ag682
ag682
ag682
ag682
ag682
ag682
ag682
ag682
ag682
ag682
ag682
ag682
ag682
ag682
ag682
ag682
ag682
ag682
ag682
ag682
ag682
ag682
ag682
ag682
ag682
ag682
ag682
ag682
ag682
ag682
ag682
ag682
ag682
ag682
ag682
ag682
ag682
ag682
ag682
ag682
ag682
ag682
ag682
ag682
ag682
ag682
ag682
ag682
ag682
ag682
ag682
ag682
ag682
ag682
ag682
ag682
ag682
ag682
ag682
ag682
ag682
ag682
ag682
ag682
ag682
ag682
ag682
ag682
ag682
ag682
ag682
ag682
ag682
ag682
ag682
ag682
ag682
ag682
ag682
ag682
ag682
ag682
ag682
ag682
ag682
ag682
ag682
ag682
ag682
ag682
ag682
ag682
ag682
ag682
ag682
ag682
ag682
ag682
ag682
ag682
ag682
ag682
ag682
ag682
ag682
ag682
ag682
ag682
ag682
ag682
ag682
ag682
ag682
ag682
ag682
ag682
ag682
ag682
ag682
ag682
ag682
ag682
ag682
ag682
ag682
ag682
ag682
ag682
ag682
ag682
ag682
ag682
ag682
ag682
ag682
ag682
ag682
ag682
ag682
ag682
ag682
ag682
ag682
ag682
ag682
ag682
ag682
ag682
ag682
ag682
ag682
ag682
ag682
ag682
ag682
ag682
ag682
ag682
ag682
ag682
ag682
ag682
ag682
ag682
ag682
ag682
ag682
ag682
ag682
ag682
ag682
ag682
ag682
ag682
ag682
ag682
ag682
ag682
ag682
ag682
ag682
ag682
ag682
ag682
ag682
ag682
ag682
ag682
ag682
ag682
ag682
ag682
ag682
ag682
ag682
ag682
ag682
ag682
ag682
ag682
ag682
ag682
ag682
ag682
ag682
ag682
ag682
ag682
ag682
ag682
ag682
ag682
ag682
ag682
ag682
ag682
ag682
ag682
ag682
ag682
ag682
ag682
ag682
ag682
ag682
ag682
ag682
ag682
ag682
ag682
ag682
ag682
ag682
ag682
ag682
ag682
ag682
ag682
ag682
ag682
ag682
ag682
ag682
ag682
ag682
ag682
ag682
ag682
ag682
ag682
ag682
ag682
ag682
ag682
ag682
ag682
ag682
ag682
ag682
ag682
ag682
ag682
ag682
ag682
ag682
ag682
ag682
ag682
ag682
ag682
ag682
ag682
ag682
ag682
ag682
ag682
ag682
ag682
ag682
ag682
ag682
ag682
ag682
ag682
ag682
ag682
ag682
ag682
ag682
ag682
ag682
ag682
ag682
ag682
ag682
ag682
ag682
ag682
ag682
ag682
ag682
ag682
ag682
ag682
ag682
ag682
ag682
ag682
ag682
ag682
ag682
ag682
ag682
ag682
ag682
ag682
ag682
ag682
ag682
ag682
ag682
ag682
ag682
ag682
ag682
ag682
ag682
ag682
ag682
ag682
ag682
ag682
ag682
ag682
ag682
ag682
ag682
ag682
ag682
ag682
ag682
ag682
ag682
ag682
ag682
ag682
ag682
ag682
ag682
ag682
ag682
ag682
ag682
ag682
ag682
ag682
ag682
ag682
ag682
ag682
ag682
ag682
ag682
ag682
ag682
ag682
ag682
ag682
ag682
ag682
ag682
ag682
ag682
ag682
ag682
ag682
ag682
ag682
ag682
ag682
ag682
ag682
ag682
ag682
ag682
ag682
ag682
ag682
ag682
ag682
ag682
ag682
ag682
ag682
ag682
ag682
ag682
ag682
ag682
ag682
ag682
ag682
ag682
ag682
ag682
ag682
ag682
ag682
ag682
ag682
ag682
ag682
ag682
ag682
ag682
ag682
ag682
ag682
ag682
ag682
ag682
ag682
ag682
ag682
ag682
ag682
ag682
ag682
ag682
ag682
ag682
ag682
ag682
ag682
ag682
ag682
ag682
ag682
ag682
ag682
ag682
ag682
ag682
ag682
ag682
ag682
ag682
ag682
ag682
ag682
ag682
ag682
ag682
ag682
ag682
ag682
ag682
ag682
ag682
ag682
ag682
ag682
ag682
ag682
ag682
asS'time'
p739
(lp740
I1
aI2
aI3
aI4
aI5
aI6
aI7
aI8
aI9
aI10
aI11
aI12
aI13
aI14
aI14
aI15
aI16
aI17
aI18
aI19
aI20
aI21
aI22
aI23
aI24
aI25
aI26
aI27
aI28
aI29
aI30
aI31
aI32
aI33
aI34
aI35
aI36
aI37
aI38
aI39
aI40
aI41
aI42
aI43
aI44
aI45
aI46
aI47
aI48
aI49
aI50
aI51
aI52
aI53
aI54
aI55
aI56
aI57
aI58
aI59
aI60
aI61
aI62
aI63
aI64
aI65
aI66
aI67
aI68
aI69
aI69
aI70
aI71
aI72
aI73
aI74
aI75
aI76
aI77
aI78
aI79
aI80
aI81
aI82
aI83
aI84
aI85
aI86
aI87
aI88
aI89
aI90
aI91
aI92
aI93
aI94
aI95
aI96
aI97
aI98
aI99
aI100
aI101
aI102
aI103
aI104
aI105
aI106
aI108
aI109
aI110
aI111
aI112
aI113
aI114
aI115
aI116
aI117
aI118
aI119
aI120
aI121
aI122
aI123
aI124
aI125
aI126
aI127
aI128
aI129
aI130
aI131
aI132
aI133
aI135
aI136
aI137
aI138
aI139
aI140
aI141
aI142
aI143
aI144
aI145
aI146
aI147
aI148
aI149
aI150
aI151
aI152
aI153
aI154
aI155
aI156
aI157
aI158
aI159
aI160
aI161
aI162
aI163
aI164
aI165
aI166
aI167
aI168
aI169
aI170
aI171
aI172
aI173
aI174
aI175
aI176
aI177
aI178
aI179
aI180
aI181
aI182
aI183
aI185
aI186
aI187
aI188
aI189
aI190
aI191
aI192
aI193
aI194
aI195
aI196
aI198
aI199
aI200
aI201
aI202
aI203
aI204
aI205
aI207
aI208
aI209
aI210
aI211
aI212
aI213
aI214
aI215
aI216
aI217
aI218
aI219
aI220
aI222
aI223
aI224
aI225
aI226
aI227
aI228
aI229
aI231
aI232
aI233
aI234
aI235
aI236
aI237
aI238
aI239
aI240
aI241
aI242
aI243
aI244
aI245
aI246
aI247
aI248
aI249
aI250
aI251
aI252
aI253
aI254
aI255
aI256
aI257
aI258
aI259
aI260
aI261
aI262
aI263
aI264
aI265
aI266
aI267
aI268
aI269
aI270
aI271
aI272
aI273
aI274
aI275
aI276
aI277
aI278
aI280
aI281
aI282
aI283
aI284
aI285
aI286
aI287
aI288
aI289
aI290
aI291
aI292
aI293
aI294
aI295
aI296
aI297
aI298
aI299
aI300
aI301
aI302
aI303
aI304
aI305
aI306
aI307
aI308
aI309
aI310
aI311
aI312
aI313
aI314
aI316
aI317
aI318
aI319
aI320
aI321
aI322
aI323
aI324
aI325
aI326
aI327
aI328
aI329
aI330
aI331
aI332
aI333
aI334
aI335
aI336
aI337
aI338
aI339
aI340
aI341
aI342
aI342
aI343
aI344
aI345
aI346
aI347
aI348
aI349
aI351
aI352
aI353
aI354
aI355
aI356
aI357
aI358
aI359
aI360
aI361
aI362
aI363
aI364
aI365
aI366
aI367
aI368
aI369
aI370
aI371
aI372
aI373
aI374
aI374
aI375
aI376
aI377
aI378
aI379
aI380
aI381
aI382
aI383
aI384
aI385
aI386
aI387
aI388
aI389
aI390
aI391
aI392
aI393
aI394
aI395
aI396
aI397
aI398
aI399
aI400
aI401
aI402
aI403
aI404
aI405
aI406
aI407
aI408
aI409
aI410
aI411
aI412
aI413
aI414
aI415
aI416
aI417
aI419
aI420
aI421
aI422
aI423
aI424
aI425
aI426
aI427
aI428
aI429
aI431
aI432
aI433
aI434
aI435
aI436
aI437
aI438
aI439
aI440
aI441
aI442
aI443
aI444
aI445
aI446
aI447
aI448
aI449
aI450
aI451
aI453
aI454
aI455
aI456
aI457
aI458
aI459
aI460
aI461
aI462
aI463
aI464
aI465
aI466
aI467
aI468
aI469
aI470
aI471
aI472
aI473
aI474
aI475
aI476
aI477
aI478
aI479
aI480
aI481
aI482
aI483
aI484
aI485
aI486
aI487
aI488
aI489
aI490
aI491
aI493
aI494
aI495
aI496
aI497
aI498
aI499
aI500
aI501
aI502
aI503
aI504
aI505
aI506
aI507
aI508
aI509
aI510
aI511
aI512
aI513
aI514
aI515
aI516
aI517
aI518
aI519
aI520
aI521
aI522
aI523
aI524
aI525
aI526
aI527
aI528
aI529
aI530
aI531
aI532
aI533
aI534
aI535
aI536
aI537
aI538
aI538
aI539
aI540
aI541
aI542
aI543
aI544
aI545
aI546
aI547
aI548
aI549
aI550
aI551
aI552
aI553
aI554
aI555
aI556
aI557
aI558
aI559
aI560
aI561
aI562
aI562
aI563
aI564
aI565
aI566
aI567
aI568
aI569
aI570
aI571
aI573
aI574
aI575
aI576
aI577
aI578
aI579
aI580
aI581
aI582
aI583
aI584
aI585
aI586
aI587
aI588
aI589
aI590
aI591
aI592
aI593
aI594
aI595
aI596
aI597
aI598
aI599
aI601
aI602
aI603
aI604
aI605
aI606
aI607
aI608
aI609
aI610
aI611
aI612
aI613
aI614
aI615
aI616
aI617
aI618
aI620
aI621
aI622
aI623
aI624
aI625
aI626
aI627
aI628
aI629
aI630
aI631
aI632
aI633
aI634
aI635
aI636
aI637
aI638
aI639
aI640
aI641
aI642
aI643
aI644
aI645
aI646
aI647
aI648
aI649
aI651
aI652
aI653
aI654
aI655
aI656
aI657
aI658
aI659
aI660
aI661
aI662
aI663
aI664
aI665
aI666
aI667
aI668
aI669
aI670
aI671
aI672
aI673
aI674
aI675
aI676
aI677
aI678
aI679
aI680
aI681
aI682
aI683
aI684
aI685
aI686
aI687
aI688
aI689
aI690
aI691
aI692
aI693
aI694
aI695
aI696
aI697
aI698
aI699
aI700
aI701
aI702
aI703
aI704
aI705
aI707
aI708
aI709
aI710
aI711
aI712
aI713
aI714
aI715
aI716
aI717
aI718
aI719
aI720
aI721
aI722
aI723
aI724
aI725
aI726
aI727
aI728
aI729
aI730
aI731
aI732
aI733
aI734
aI735
aI736
aI737
aI737
aI738
aI739
aI740
aI741
aI742
aI743
aI744
aI745
aI746
aI747
aI748
aI749
aI750
aI751
aI752
aI753
aI754
aI755
aI756
aI757
aI758
aI759
aI760
aI761
aI762
aI763
aI764
aI765
aI766
aI767
aI768
aI769
aI770
aI771
aI772
aI773
aI774
aI775
aI776
aI777
aI778
aI779
aI780
aI781
aI782
aI783
aI784
aI785
aI786
aI787
aI788
aI789
aI790
aI791
aI792
aI793
aI794
aI796
aI797
aI798
aI799
aI800
aI801
aI802
aI803
aI804
aI805
aI806
aI807
aI808
aI809
aI810
aI811
aI812
aI813
aI814
aI815
aI816
aI817
aI818
aI819
aI820
aI821
aI822
aI823
aI824
aI825
aI826
aI827
aI828
aI829
aI830
aI831
aI832
aI833
aI834
aI835
aI835
aI836
aI837
aI838
aI839
aI840
aI841
aI842
aI843
aI844
aI845
aI846
aI847
aI848
aI849
aI850
aI851
aI852
aI853
aI854
aI855
aI856
aI857
aI858
aI858
aI859
aI860
aI861
aI862
aI863
aI864
aI865
aI866
aI867
aI868
aI869
aI870
aI871
aI872
aI873
aI874
aI875
aI876
aI877
aI878
aI879
aI880
aI881
aI882
aI883
aI884
aI885
aI886
aI887
aI888
aI889
aI890
aI891
aI892
aI893
aI894
aI895
aI896
aI897
aI898
aI899
aI900
aI901
aI902
aI903
aI904
aI905
aI906
aI907
aI908
aI909
aI910
aI911
aI912
aI913
aI914
aI915
aI916
aI917
aI919
aI920
aI921
aI922
aI923
aI924
aI926
aI927
aI928
aI929
aI930
aI931
aI932
aI934
aI935
aI936
aI937
aI938
aI939
aI940
aI941
aI942
aI943
aI945
aI946
aI947
aI948
aI949
aI950
aI951
aI952
aI953
aI954
aI955
aI956
aI957
aI959
aI960
aI961
aI962
aI963
aI964
aI965
aI966
aI967
aI968
aI969
aI970
aI971
aI972
aI973
aI974
aI976
aI977
aI978
aI979
aI980
aI981
aI982
aI983
aI984
aI985
aI986
aI987
aI989
aI990
aI991
aI992
aI993
aI994
aI995
aI996
aI998
aI999
aI1000
aI1001
aI1002
aI1003
aI1004
aI1005
aI1006
aI1007
aI1008
aI1009
aI1011
aI1012
aI1013
aI1014
aI1015
aI1016
aI1017
aI1018
aI1019
aI1020
aI1022
aI1023
aI1024
aI1025
aI1026
aI1027
aI1028
aI1029
aI1030
aI1031
aI1032
aI1033
aI1035
aI1036
aI1037
aI1038
aI1039
aI1040
aI1041
aI1042
aI1043
aI1044
aI1045
aI1046
aI1047
aI1048
aI1049
aI1050
aI1051
aI1052
aI1053
aI1054
aI1055
aI1056
aI1057
aI1058
aI1059
aI1060
aI1061
aI1062
aI1063
aI1064
as.