(dp0
S'nfe'
p1
(lp2
I192
aI384
aI576
aI768
aI960
aI1152
aI1344
aI1536
aI1728
aI1920
aI2112
aI2304
aI2496
aI2688
aI2880
aI3072
aI3264
aI3456
aI3648
aI3840
aI4032
aI4224
aI4416
aI4608
aI4800
aI4992
aI5184
aI5376
aI5568
aI5760
aI5952
aI6144
aI6336
aI6528
aI6720
aI6912
aI7104
aI7296
aI7488
aI7680
aI7872
aI8064
aI8256
aI8448
aI8640
aI8832
aI9024
aI9216
aI9408
aI9600
aI9792
aI9984
aI10176
aI10368
aI10560
aI10752
aI10944
aI11136
aI11328
aI11520
aI11712
aI11904
aI12096
aI12288
aI12480
aI12672
aI12864
aI13056
aI13248
aI13440
aI13632
aI13824
aI14016
aI14208
aI14400
aI14592
aI14784
aI14976
aI15168
aI15360
aI15552
aI15744
aI15936
aI16128
aI16320
aI16512
aI16704
aI16896
aI17088
aI17280
aI17472
aI17664
aI17856
aI18048
aI18240
aI18432
aI18624
aI18816
aI19008
aI19200
aI19392
aI19584
aI19776
aI19968
aI20160
aI20352
aI20544
aI20736
aI20928
aI21120
aI21312
aI21504
aI21696
aI21888
aI22080
aI22272
aI22464
aI22656
aI22848
aI23040
aI23232
aI23424
aI23616
aI23808
aI24000
aI24192
aI24384
aI24576
aI24768
aI24960
aI25152
aI25344
aI25536
aI25728
aI25920
aI26112
aI26304
aI26496
aI26688
aI26880
aI27072
aI27264
aI27456
aI27648
aI27840
aI28032
aI28224
aI28416
aI28608
aI28800
aI28992
aI29184
aI29376
aI29568
aI29760
aI29952
aI30144
aI30336
aI30528
aI30720
aI30912
aI31104
aI31296
aI31488
aI31680
aI31872
aI32064
aI32256
aI32448
aI32640
aI32832
aI33024
aI33216
aI33408
aI33600
aI33792
aI33984
aI34176
aI34368
aI34560
aI34752
aI34944
aI35136
aI35328
aI35520
aI35712
aI35904
aI36096
aI36288
aI36480
aI36672
aI36864
aI37056
aI37248
aI37440
aI37632
aI37824
aI38016
aI38208
aI38400
aI38592
aI38784
aI38976
aI39168
aI39360
aI39552
aI39744
aI39936
aI40128
aI40320
aI40512
aI40704
aI40896
aI41088
aI41280
aI41472
aI41664
aI41856
aI42048
aI42240
aI42432
aI42624
aI42816
aI43008
aI43200
aI43392
aI43584
aI43776
aI43968
aI44160
aI44352
aI44544
aI44736
aI44928
aI45120
aI45312
aI45504
aI45696
aI45888
aI46080
aI46272
aI46464
aI46656
aI46848
aI47040
aI47232
aI47424
aI47616
aI47808
aI48000
aI48192
aI48384
aI48576
aI48768
aI48960
aI49152
aI49344
aI49536
aI49728
aI49920
aI50112
aI50304
aI50496
aI50688
aI50880
aI51072
aI51264
aI51456
aI51648
aI51840
aI52032
aI52224
aI52416
aI52608
aI52800
aI52992
aI53184
aI53376
aI53568
aI53760
aI53952
aI54144
aI54336
aI54528
aI54720
aI54912
aI55104
aI55296
aI55488
aI55680
aI55872
aI56064
aI56256
aI56448
aI56640
aI56832
aI57024
aI57216
aI57408
aI57600
aI57792
aI57984
aI58176
aI58368
aI58560
aI58752
aI58944
aI59136
aI59328
aI59520
aI59712
aI59904
aI60096
aI60288
aI60480
aI60672
aI60864
aI61056
aI61248
aI61440
aI61632
aI61824
aI62016
aI62208
aI62400
aI62592
aI62784
aI62976
aI63168
aI63360
aI63552
aI63744
aI63936
aI64128
aI64320
aI64512
aI64704
aI64896
aI65088
aI65280
aI65472
aI65664
aI65856
aI66048
aI66240
aI66432
aI66624
aI66816
aI67008
aI67200
aI67392
aI67584
aI67776
aI67968
aI68160
aI68352
aI68544
aI68736
aI68928
aI69120
aI69312
aI69504
aI69696
aI69888
aI70080
aI70272
aI70464
aI70656
aI70848
aI71040
aI71232
aI71424
aI71616
aI71808
aI72000
aI72192
aI72384
aI72576
aI72768
aI72960
aI73152
aI73344
aI73536
aI73728
aI73920
aI74112
aI74304
aI74496
aI74688
aI74880
aI75072
aI75264
aI75456
aI75648
aI75840
aI76032
aI76224
aI76416
aI76608
aI76800
aI76992
aI77184
aI77376
aI77568
aI77760
aI77952
aI78144
aI78336
aI78528
aI78720
aI78912
aI79104
aI79296
aI79488
aI79680
aI79872
aI80064
aI80256
aI80448
aI80640
aI80832
aI81024
aI81216
aI81408
aI81600
aI81792
aI81984
aI82176
aI82368
aI82560
aI82752
aI82944
aI83136
aI83328
aI83520
aI83712
aI83904
aI84096
aI84288
aI84480
aI84672
aI84864
aI85056
aI85248
aI85440
aI85632
aI85824
aI86016
aI86208
aI86400
aI86592
aI86784
aI86976
aI87168
aI87360
aI87552
aI87744
aI87936
aI88128
aI88320
aI88512
aI88704
aI88896
aI89088
aI89280
aI89472
aI89664
aI89856
aI90048
aI90240
aI90432
aI90624
aI90816
aI91008
aI91200
aI91392
aI91584
aI91776
aI91968
aI92160
aI92352
aI92544
aI92736
aI92928
aI93120
aI93312
aI93504
aI93696
aI93888
aI94080
aI94272
aI94464
aI94656
aI94848
aI95040
aI95232
aI95424
aI95616
aI95808
aI96000
aI96192
aI96384
aI96576
aI96768
aI96960
aI97152
aI97344
aI97536
aI97728
aI97920
aI98112
aI98304
aI98496
aI98688
aI98880
aI99072
aI99264
aI99456
aI99648
aI99840
aI100032
aI100224
aI100416
aI100608
aI100800
aI100992
aI101184
aI101376
aI101568
aI101760
aI101952
aI102144
aI102336
aI102528
aI102720
aI102912
aI103104
aI103296
aI103488
aI103680
aI103872
aI104064
aI104256
aI104448
aI104640
aI104832
aI105024
aI105216
aI105408
aI105600
aI105792
aI105984
aI106176
aI106368
aI106560
aI106752
aI106944
aI107136
aI107328
aI107520
aI107712
aI107904
aI108096
aI108288
aI108480
aI108672
aI108864
aI109056
aI109248
aI109440
aI109632
aI109824
aI110016
aI110208
aI110400
aI110592
aI110784
aI110976
aI111168
aI111360
aI111552
aI111744
aI111936
aI112128
aI112320
aI112512
aI112704
aI112896
aI113088
aI113280
aI113472
aI113664
aI113856
aI114048
aI114240
aI114432
aI114624
aI114816
aI115008
aI115200
aI115392
aI115584
aI115776
aI115968
aI116160
aI116352
aI116544
aI116736
aI116928
aI117120
aI117312
aI117504
aI117696
aI117888
aI118080
aI118272
aI118464
aI118656
aI118848
aI119040
aI119232
aI119424
aI119616
aI119808
aI120000
aI120192
aI120384
aI120576
aI120768
aI120960
aI121152
aI121344
aI121536
aI121728
aI121920
aI122112
aI122304
aI122496
aI122688
aI122880
aI123072
aI123264
aI123456
aI123648
aI123840
aI124032
aI124224
aI124416
aI124608
aI124800
aI124992
aI125184
aI125376
aI125568
aI125760
aI125952
aI126144
aI126336
aI126528
aI126720
aI126912
aI127104
aI127296
aI127488
aI127680
aI127872
aI128064
aI128256
aI128448
aI128640
aI128832
aI129024
aI129216
aI129408
aI129600
aI129792
aI129984
aI130176
aI130368
aI130560
aI130752
aI130944
aI131136
aI131328
aI131520
aI131712
aI131904
aI132096
aI132288
aI132480
aI132672
aI132864
aI133056
aI133248
aI133440
aI133632
aI133824
aI134016
aI134208
aI134400
aI134592
aI134784
aI134976
aI135168
aI135360
aI135552
aI135744
aI135936
aI136128
aI136320
aI136512
aI136704
aI136896
aI137088
aI137280
aI137472
aI137664
aI137856
aI138048
aI138240
aI138432
aI138624
aI138816
aI139008
aI139200
aI139392
aI139584
aI139776
aI139968
aI140160
aI140352
aI140544
aI140736
aI140928
aI141120
aI141312
aI141504
aI141696
aI141888
aI142080
aI142272
aI142464
aI142656
aI142848
aI143040
aI143232
aI143424
aI143616
aI143808
aI144000
aI144192
aI144384
aI144576
aI144768
aI144960
aI145152
aI145344
aI145536
aI145728
aI145920
aI146112
aI146304
aI146496
aI146688
aI146880
aI147072
aI147264
aI147456
aI147648
aI147840
aI148032
aI148224
aI148416
aI148608
aI148800
aI148992
aI149184
aI149376
aI149568
aI149760
aI149952
aI150144
aI150336
aI150528
aI150720
aI150912
aI151104
aI151296
aI151488
aI151680
aI151872
aI152064
aI152256
aI152448
aI152640
aI152832
aI153024
aI153216
aI153408
aI153600
aI153792
aI153984
aI154176
aI154368
aI154560
aI154752
aI154944
aI155136
aI155328
aI155520
aI155712
aI155904
aI156096
aI156288
aI156480
aI156672
aI156864
aI157056
aI157248
aI157440
aI157632
aI157824
aI158016
aI158208
aI158400
aI158592
aI158784
aI158976
aI159168
aI159360
aI159552
aI159744
aI159936
aI160128
aI160320
aI160512
aI160704
aI160896
aI161088
aI161280
aI161472
aI161664
aI161856
aI162048
aI162240
aI162432
aI162624
aI162816
aI163008
aI163200
aI163392
aI163584
aI163776
aI163968
aI164160
aI164352
aI164544
aI164736
aI164928
aI165120
aI165312
aI165504
aI165696
aI165888
aI166080
aI166272
aI166464
aI166656
aI166848
aI167040
aI167232
aI167424
aI167616
aI167808
aI168000
aI168192
aI168384
aI168576
aI168768
aI168960
aI169152
aI169344
aI169536
aI169728
aI169920
aI170112
aI170304
aI170496
aI170688
aI170880
aI171072
aI171264
aI171456
aI171648
aI171840
aI172032
aI172224
aI172416
aI172608
aI172800
aI172992
aI173184
aI173376
aI173568
aI173760
aI173952
aI174144
aI174336
aI174528
aI174720
aI174912
aI175104
aI175296
aI175488
aI175680
aI175872
aI176064
aI176256
aI176448
aI176640
aI176832
aI177024
aI177216
aI177408
aI177600
aI177792
aI177984
aI178176
aI178368
aI178560
aI178752
aI178944
aI179136
aI179328
aI179520
aI179712
aI179904
aI180096
aI180288
aI180480
aI180672
aI180864
aI181056
aI181248
aI181440
aI181632
aI181824
aI182016
aI182208
aI182400
aI182592
aI182784
aI182976
aI183168
aI183360
aI183552
aI183744
aI183936
aI184128
aI184320
aI184512
aI184704
aI184896
aI185088
aI185280
aI185472
aI185664
aI185856
aI186048
aI186240
aI186432
aI186624
aI186816
aI187008
aI187200
aI187392
aI187584
aI187776
aI187968
aI188160
aI188352
aI188544
aI188736
aI188928
aI189120
aI189312
aI189504
aI189696
aI189888
aI190080
aI190272
aI190464
aI190656
aI190848
aI191040
aI191232
aI191424
aI191616
aI191808
aI192000
aI192192
aI192384
aI192576
aI192768
aI192960
aI193152
aI193344
aI193536
aI193728
aI193920
aI194112
aI194304
aI194496
aI194688
aI194880
aI195072
aI195264
aI195456
aI195648
aI195840
aI196032
aI196224
aI196416
aI196608
aI196800
aI196992
aI197184
aI197376
aI197568
aI197760
aI197952
aI198144
aI198336
aI198528
aI198720
aI198912
aI199104
aI199296
aI199488
aI199680
aI199872
aI200064
asS'best_f'
p3
(lp4
cnumpy.core.multiarray
scalar
p5
(cnumpy
dtype
p6
(S'f8'
p7
I0
I1
tp8
Rp9
(I3
S'<'
p10
NNNI-1
I-1
I0
tp11
bS']#\x02s\xec\xe2x\xc0'
p12
tp13
Rp14
ag14
ag5
(g9
S'\x13A$\x00\xad\x94y\xc0'
p15
tp16
Rp17
ag17
ag5
(g9
S'u\xa7\x1ca"&z\xc0'
p18
tp19
Rp20
ag5
(g9
S'\x19{\xb8\x12\x04tz\xc0'
p21
tp22
Rp23
ag23
ag5
(g9
S'F{\xab\x08\x1f\xfcz\xc0'
p24
tp25
Rp26
ag26
ag5
(g9
S'\x97\xbc\x8f_%\x07{\xc0'
p27
tp28
Rp29
ag29
ag5
(g9
S'\x0f\x11\xc6\xfa\x99\x16{\xc0'
p30
tp31
Rp32
ag32
ag5
(g9
S'\xef^\x1aG\x1eE{\xc0'
p33
tp34
Rp35
ag35
ag35
ag35
ag5
(g9
S'3\xab\xf9\xdd]O{\xc0'
p36
tp37
Rp38
ag5
(g9
S'\xdf\x0c4\xfc\x9dR{\xc0'
p39
tp40
Rp41
ag5
(g9
S'.\x1c[\x90M|{\xc0'
p42
tp43
Rp44
ag44
ag44
ag5
(g9
S'C8\xab7\xad\x85{\xc0'
p45
tp46
Rp47
ag47
ag5
(g9
S'Y\xa57@\x82\x8f{\xc0'
p48
tp49
Rp50
ag50
ag50
ag50
ag50
ag50
ag50
ag50
ag50
ag50
ag50
ag50
ag50
ag5
(g9
S'U\x0e\xae\xd0\x98\xa5{\xc0'
p51
tp52
Rp53
ag53
ag53
ag53
ag53
ag53
ag53
ag53
ag53
ag53
ag53
ag53
ag53
ag53
ag53
ag53
ag53
ag53
ag53
ag53
ag53
ag53
ag53
ag53
ag53
ag53
ag53
ag5
(g9
S'\xa6\xf2f\xae\xbe\xac{\xc0'
p54
tp55
Rp56
ag5
(g9
S'G)yL:\xb9{\xc0'
p57
tp58
Rp59
ag59
ag59
ag59
ag59
ag59
ag59
ag59
ag59
ag59
ag59
ag59
ag59
ag59
ag59
ag59
ag59
ag59
ag59
ag59
ag59
ag59
ag59
ag59
ag59
ag59
ag59
ag59
ag59
ag59
ag59
ag59
ag59
ag59
ag59
ag59
ag59
ag59
ag59
ag59
ag59
ag59
ag59
ag59
ag59
ag59
ag59
ag59
ag59
ag59
ag59
ag59
ag59
ag59
ag59
ag59
ag59
ag59
ag59
ag59
ag59
ag59
ag59
ag59
ag59
ag59
ag59
ag59
ag59
ag59
ag59
ag59
ag59
ag59
ag59
ag59
ag59
ag59
ag59
ag59
ag59
ag59
ag59
ag5
(g9
S'Fk\xd5\xcef\xbd{\xc0'
p60
tp61
Rp62
ag62
ag62
ag62
ag62
ag62
ag62
ag62
ag62
ag62
ag62
ag62
ag62
ag62
ag62
ag62
ag62
ag62
ag62
ag62
ag62
ag62
ag62
ag62
ag62
ag62
ag62
ag62
ag62
ag62
ag62
ag62
ag62
ag62
ag62
ag62
ag62
ag62
ag62
ag62
ag62
ag62
ag62
ag62
ag62
ag62
ag62
ag62
ag62
ag62
ag62
ag62
ag62
ag62
ag62
ag62
ag62
ag62
ag62
ag62
ag62
ag62
ag62
ag62
ag62
ag62
ag62
ag62
ag62
ag62
ag62
ag62
ag62
ag62
ag62
ag62
ag62
ag62
ag62
ag62
ag62
ag62
ag62
ag62
ag62
ag62
ag62
ag62
ag62
ag62
ag62
ag62
ag62
ag62
ag62
ag62
ag62
ag62
ag62
ag62
ag62
ag62
ag62
ag62
ag62
ag62
ag62
ag62
ag62
ag62
ag62
ag62
ag62
ag62
ag62
ag62
ag62
ag62
ag62
ag62
ag62
ag62
ag5
(g9
S'\xf2\xf9\xdfx1\xcb{\xc0'
p63
tp64
Rp65
ag65
ag65
ag65
ag65
ag65
ag65
ag65
ag65
ag65
ag65
ag65
ag65
ag65
ag65
ag65
ag65
ag65
ag65
ag65
ag65
ag65
ag65
ag65
ag65
ag65
ag65
ag65
ag65
ag65
ag65
ag65
ag65
ag65
ag65
ag65
ag65
ag65
ag65
ag65
ag65
ag65
ag65
ag65
ag65
ag65
ag65
ag65
ag65
ag65
ag65
ag65
ag65
ag65
ag65
ag65
ag65
ag65
ag65
ag65
ag65
ag65
ag65
ag65
ag65
ag65
ag65
ag65
ag65
ag65
ag65
ag65
ag65
ag65
ag65
ag65
ag65
ag65
ag65
ag65
ag65
ag65
ag65
ag65
ag65
ag65
ag65
ag65
ag65
ag65
ag65
ag65
ag65
ag65
ag65
ag65
ag65
ag65
ag65
ag65
ag65
ag65
ag65
ag65
ag65
ag65
ag65
ag65
ag65
ag65
ag65
ag65
ag65
ag65
ag65
ag65
ag65
ag65
ag65
ag65
ag65
ag65
ag65
ag65
ag65
ag65
ag65
ag65
ag65
ag65
ag65
ag65
ag65
ag65
ag65
ag65
ag65
ag65
ag65
ag65
ag65
ag65
ag65
ag65
ag65
ag65
ag65
ag65
ag65
ag65
ag65
ag65
ag65
ag65
ag65
ag65
ag65
ag65
ag65
ag65
ag65
ag65
ag65
ag65
ag65
ag65
ag65
ag65
ag65
ag65
ag65
ag65
ag65
ag65
ag65
ag65
ag65
ag65
ag65
ag65
ag65
ag65
ag65
ag65
ag65
ag65
ag65
ag65
ag65
ag65
ag65
ag65
ag65
ag65
ag65
ag65
ag65
ag65
ag65
ag65
ag65
ag65
ag65
ag65
ag65
ag65
ag65
ag65
ag65
ag65
ag65
ag65
ag65
ag65
ag65
ag65
ag65
ag65
ag65
ag65
ag65
ag65
ag65
ag65
ag65
ag65
ag65
ag65
ag65
ag65
ag65
ag65
ag65
ag65
ag65
ag65
ag65
ag65
ag65
ag65
ag65
ag65
ag65
ag65
ag65
ag65
ag65
ag65
ag65
ag65
ag65
ag65
ag65
ag65
ag65
ag65
ag65
ag65
ag65
ag5
(g9
S'\xee\xd7l\xac\x10\xd7{\xc0'
p66
tp67
Rp68
ag68
ag68
ag68
ag68
ag68
ag68
ag68
ag68
ag68
ag68
ag68
ag68
ag68
ag68
ag68
ag68
ag68
ag68
ag68
ag68
ag68
ag68
ag68
ag68
ag68
ag68
ag68
ag68
ag68
ag68
ag68
ag68
ag68
ag68
ag68
ag68
ag68
ag68
ag68
ag68
ag68
ag68
ag68
ag68
ag68
ag68
ag68
ag68
ag68
ag68
ag68
ag68
ag68
ag68
ag68
ag68
ag68
ag68
ag68
ag68
ag68
ag68
ag68
ag68
ag68
ag68
ag68
ag68
ag68
ag68
ag68
ag68
ag68
ag68
ag68
ag68
ag68
ag68
ag68
ag68
ag68
ag68
ag68
ag68
ag68
ag68
ag68
ag68
ag68
ag68
ag68
ag68
ag68
ag68
ag68
ag68
ag68
ag68
ag68
ag68
ag68
ag68
ag68
ag68
ag68
ag68
ag68
ag68
ag68
ag68
ag68
ag68
ag68
ag68
ag68
ag68
ag68
ag68
ag68
ag68
ag68
ag68
ag68
ag68
ag68
ag68
ag68
ag68
ag68
ag68
ag68
ag68
ag68
ag68
ag68
ag68
ag68
ag68
ag68
ag68
ag68
ag68
ag68
ag68
ag68
ag68
ag68
ag68
ag68
ag68
ag68
ag68
ag68
ag68
ag68
ag68
ag68
ag68
ag68
ag68
ag68
ag68
ag68
ag68
ag68
ag68
ag68
ag68
ag68
ag68
ag68
ag68
ag68
ag68
ag68
ag68
ag68
ag68
ag68
ag68
ag68
ag68
ag68
ag68
ag68
ag68
ag68
ag68
ag68
ag68
ag68
ag68
ag68
ag68
ag68
ag68
ag68
ag68
ag68
ag68
ag68
ag68
ag68
ag68
ag68
ag68
ag68
ag68
ag68
ag68
ag68
ag68
ag68
ag68
ag68
ag68
ag68
ag68
ag68
ag68
ag68
ag68
ag68
ag68
ag5
(g9
S'\x8b\x8b\x0b\xdd\xf1\xd7{\xc0'
p69
tp70
Rp71
ag71
ag71
ag71
ag71
ag71
ag71
ag71
ag71
ag71
ag71
ag71
ag71
ag71
ag71
ag71
ag71
ag71
ag71
ag71
ag71
ag71
ag71
ag71
ag71
ag71
ag71
ag71
ag71
ag71
ag71
ag71
ag71
ag71
ag71
ag71
ag71
ag71
ag71
ag71
ag71
ag71
ag71
ag71
ag71
ag71
ag71
ag71
ag71
ag71
ag71
ag71
ag71
ag71
ag71
ag71
ag71
ag71
ag71
ag71
ag71
ag71
ag71
ag71
ag71
ag71
ag71
ag71
ag71
ag71
ag71
ag71
ag71
ag71
ag71
ag71
ag71
ag71
ag71
ag71
ag71
ag71
ag71
ag71
ag71
ag71
ag71
ag71
ag71
ag71
ag71
ag71
ag71
ag71
ag71
ag71
ag71
ag71
ag71
ag71
ag71
ag71
ag71
ag71
ag71
ag71
ag71
ag71
ag71
ag71
ag71
ag71
ag71
ag71
ag71
ag71
ag71
ag71
ag71
ag71
ag71
ag71
ag71
ag71
ag71
ag71
ag71
ag71
ag71
ag71
ag71
ag71
ag71
ag71
ag71
ag71
ag71
ag71
ag71
ag71
ag71
ag71
ag71
ag71
ag71
ag71
ag71
ag71
ag71
ag71
ag71
ag71
ag71
ag71
ag71
ag71
ag71
ag71
ag71
ag71
ag71
ag71
ag71
ag71
ag71
ag71
ag71
ag71
ag71
ag71
ag71
ag71
ag71
ag71
ag71
ag71
ag71
ag71
ag71
ag71
ag71
ag71
ag71
ag71
ag71
ag71
ag71
ag71
ag71
ag71
ag71
ag71
ag71
ag71
ag71
ag71
ag71
ag71
ag71
ag71
ag71
ag71
ag71
ag71
ag71
ag71
ag71
ag71
ag71
ag71
ag71
ag71
ag71
ag71
ag71
ag71
ag71
ag71
ag71
ag71
ag71
ag71
ag71
ag71
ag71
ag71
ag71
ag71
ag71
ag71
ag71
ag71
ag71
ag71
ag71
ag71
ag71
ag71
ag71
ag71
ag71
ag71
ag71
ag71
ag71
ag71
ag71
ag71
ag71
ag71
ag71
ag71
ag71
ag71
ag71
ag71
ag71
ag71
ag71
ag71
ag71
ag71
ag71
ag71
ag71
ag71
ag71
ag71
ag71
ag71
ag71
ag71
ag71
ag71
ag71
ag71
ag71
ag71
ag71
ag71
ag71
ag71
ag71
ag71
ag71
ag71
ag71
ag71
asS'best_P'
p72
(lp73
(iptreeopt.tree
PTree
p74
(dp75
S'root'
p76
ccopy_reg
_reconstructor
p77
(cptreeopt.tree
Feature
p78
c__builtin__
object
p79
Ntp80
Rp81
(dp82
S'index'
p83
I0
sS'r'
p84
g77
(g78
g79
Ntp85
Rp86
(dp87
g83
I1
sg84
g77
(cptreeopt.tree
Action
p88
g79
Ntp89
Rp90
(dp91
g84
NsS'is_feature'
p92
I00
sS'value'
p93
g5
(g9
S'w\x01\xde\xcbe\x86\xe7?'
p94
tp95
Rp96
sS'l'
p97
NsbsS'name'
p98
S'Day'
p99
sS'threshold'
p100
g5
(g9
S'c\xc5\xb2\xef}\xd0/@'
p101
tp102
Rp103
sg97
g77
(g88
g79
Ntp104
Rp105
(dp106
g84
Nsg92
I00
sg93
g5
(g9
S'|\xd7i\x07\xcb\xdd\xe7?'
p107
tp108
Rp109
sg97
Nsbsg92
I01
sbsg98
S'Storage'
p110
sg100
g5
(g9
S'\x00\x00\x00\x00\x00\xe0p@'
p111
tp112
Rp113
sg97
g77
(g78
g79
Ntp114
Rp115
(dp116
g83
I2
sg84
g77
(g88
g79
Ntp117
Rp118
(dp119
g84
Nsg92
I00
sg93
F0.6689810888937967
sg97
Nsbsg98
S'Inflow'
p120
sg100
g5
(g9
S"\x06\xf4}\x13\xaa\xf5'@"
p121
tp122
Rp123
sg97
g77
(g88
g79
Ntp124
Rp125
(dp126
g84
Nsg92
I00
sg93
g5
(g9
S'Nj4x\xaa\xe6\xc2?'
p127
tp128
Rp129
sg97
Nsbsg92
I01
sbsg92
I01
sbsS'L'
p130
(lp131
g81
ag115
ag125
ag118
ag86
ag105
ag90
asS'N'
p132
I7
sbag74
a(iptreeopt.tree
PTree
p133
(dp134
g76
g77
(g78
g79
Ntp135
Rp136
(dp137
g83
I0
sg84
g77
(g78
g79
Ntp138
Rp139
(dp140
g83
I2
sg84
g77
(g88
g79
Ntp141
Rp142
(dp143
g84
Nsg92
I00
sg93
g5
(g9
S'\xd3\xbc\x82\x89E$\xdb?'
p144
tp145
Rp146
sg97
Nsbsg98
g120
sg100
g5
(g9
S'\x12\x86[\xc4\x19W\x1b@'
p147
tp148
Rp149
sg97
g77
(g88
g79
Ntp150
Rp151
(dp152
g84
Nsg92
I00
sg93
g5
(g9
S'\x90\xec\x82\xd7F:\xe9?'
p153
tp154
Rp155
sg97
Nsbsg92
I01
sbsg98
g110
sg100
g5
(g9
S'\x00\x00\x00\x00\x00\xe0p@'
p156
tp157
Rp158
sg97
g77
(g78
g79
Ntp159
Rp160
(dp161
g83
I2
sg84
g77
(g88
g79
Ntp162
Rp163
(dp164
g84
Nsg92
I00
sg93
g5
(g9
S'\x12\xd8\xf9/\xc4\x07\xef?'
p165
tp166
Rp167
sg97
Nsbsg98
g120
sg100
g5
(g9
S'\x06\x05\x9a\xe0-\xd5\x14@'
p168
tp169
Rp170
sg97
g77
(g78
g79
Ntp171
Rp172
(dp173
g83
I1
sg84
g77
(g88
g79
Ntp174
Rp175
(dp176
g84
Nsg92
I00
sg93
g5
(g9
S'\x00\x00\x00\x00\x00\x00\x00\x00'
p177
tp178
Rp179
sg97
Nsbsg98
g99
sg100
g5
(g9
S'\x7f\xe2\xb1\x9ak\xc6o@'
p180
tp181
Rp182
sg97
g77
(g88
g79
Ntp183
Rp184
(dp185
g84
Nsg92
I00
sg93
g5
(g9
S"\x12\xc4\x82\xf3\x83'\xd1?"
p186
tp187
Rp188
sg97
Nsbsg92
I01
sbsg92
I01
sbsg92
I01
sbsg130
(lp189
g136
ag160
ag172
ag184
ag175
ag163
ag139
ag151
ag142
asg132
I9
sbag133
a(iptreeopt.tree
PTree
p190
(dp191
g76
g77
(g78
g79
Ntp192
Rp193
(dp194
g83
I0
sg84
g77
(g78
g79
Ntp195
Rp196
(dp197
g83
I2
sg84
g77
(g88
g79
Ntp198
Rp199
(dp200
g84
Nsg92
I00
sg93
g5
(g9
S'\xb1\x90\xa5n4\r\xdb?'
p201
tp202
Rp203
sg97
Nsbsg98
g120
sg100
g5
(g9
S'\x1c\xed\x7f\xd7\x80d\x19@'
p204
tp205
Rp206
sg97
g77
(g88
g79
Ntp207
Rp208
(dp209
g84
Nsg92
I00
sg93
g5
(g9
S'\xa8\x10\xb2LGJ\xe4?'
p210
tp211
Rp212
sg97
Nsbsg92
I01
sbsg98
g110
sg100
g5
(g9
S'\x00\x00\x00\x00\x00\xe0p@'
p213
tp214
Rp215
sg97
g77
(g78
g79
Ntp216
Rp217
(dp218
g83
I2
sg84
g77
(g88
g79
Ntp219
Rp220
(dp221
g84
Nsg92
I00
sg93
g5
(g9
S'P\xe1\xaaE\x8e"\xe9?'
p222
tp223
Rp224
sg97
Nsbsg98
g120
sg100
g5
(g9
S'\x97\xe0R\x86\x96\xa4"@'
p225
tp226
Rp227
sg97
g77
(g78
g79
Ntp228
Rp229
(dp230
g83
I1
sg84
g77
(g88
g79
Ntp231
Rp232
(dp233
g84
Nsg92
I00
sg93
g5
(g9
S'\x00\x00\x00\x00\x00\x00\x00\x00'
p234
tp235
Rp236
sg97
Nsbsg98
g99
sg100
g5
(g9
S'\x85C\xf2\xa0\xc6Sn@'
p237
tp238
Rp239
sg97
g77
(g88
g79
Ntp240
Rp241
(dp242
g84
Nsg92
I00
sg93
g5
(g9
S'"\xc4\xd4D\xd3\xa6\xe0?'
p243
tp244
Rp245
sg97
Nsbsg92
I01
sbsg92
I01
sbsg92
I01
sbsg130
(lp246
g193
ag217
ag229
ag241
ag232
ag220
ag196
ag208
ag199
asg132
I9
sba(iptreeopt.tree
PTree
p247
(dp248
g76
g77
(g78
g79
Ntp249
Rp250
(dp251
g83
I0
sg84
g77
(g78
g79
Ntp252
Rp253
(dp254
g83
I2
sg84
g77
(g88
g79
Ntp255
Rp256
(dp257
g84
Nsg92
I00
sg93
g5
(g9
S'\r\xb9\x1d%\xdf:\xea?'
p258
tp259
Rp260
sg97
Nsbsg98
g120
sg100
g5
(g9
S'\xef\xf6\xd4\xbc\xd0\x0e\x16@'
p261
tp262
Rp263
sg97
g77
(g88
g79
Ntp264
Rp265
(dp266
g84
Nsg92
I00
sg93
g5
(g9
S'\xd4\x889\xd1\xf7;\xe9?'
p267
tp268
Rp269
sg97
Nsbsg92
I01
sbsg98
g110
sg100
g5
(g9
S'\x00\x00\x00\x00\x00\xe0p@'
p270
tp271
Rp272
sg97
g77
(g78
g79
Ntp273
Rp274
(dp275
g83
I2
sg84
g77
(g88
g79
Ntp276
Rp277
(dp278
g84
Nsg92
I00
sg93
g5
(g9
S'\x00\x00\x00\x00\x00\x00\xf0?'
p279
tp280
Rp281
sg97
Nsbsg98
g120
sg100
g5
(g9
S'\xa4\xb5\xc3\xca"=\x1a@'
p282
tp283
Rp284
sg97
g77
(g78
g79
Ntp285
Rp286
(dp287
g83
I1
sg84
g77
(g88
g79
Ntp288
Rp289
(dp290
g84
Nsg92
I00
sg93
g5
(g9
S'\x00\x00\x00\x00\x00\x00\x00\x00'
p291
tp292
Rp293
sg97
Nsbsg98
g99
sg100
g5
(g9
S'\xa7\x8c\xd8-7\xb3i@'
p294
tp295
Rp296
sg97
g77
(g88
g79
Ntp297
Rp298
(dp299
g84
Nsg92
I00
sg93
g5
(g9
S'\xe6\xde\xc4Z\x89\xc2\xdc?'
p300
tp301
Rp302
sg97
Nsbsg92
I01
sbsg92
I01
sbsg92
I01
sbsg130
(lp303
g250
ag274
ag286
ag298
ag289
ag277
ag253
ag265
ag256
asg132
I9
sbag247
a(iptreeopt.tree
PTree
p304
(dp305
g76
g77
(g78
g79
Ntp306
Rp307
(dp308
g83
I0
sg84
g77
(g78
g79
Ntp309
Rp310
(dp311
g83
I2
sg84
g77
(g88
g79
Ntp312
Rp313
(dp314
g84
Nsg92
I00
sg93
g5
(g9
S'\xaa\x03\xe9\xf8\xdd#\xc6?'
p315
tp316
Rp317
sg97
Nsbsg98
g120
sg100
g5
(g9
S'\xf9\x04\x88\x84J\xab\x14@'
p318
tp319
Rp320
sg97
g77
(g88
g79
Ntp321
Rp322
(dp323
g84
Nsg92
I00
sg93
g5
(g9
S'H%\xa1\xf0\xf5\xdc\xe9?'
p324
tp325
Rp326
sg97
Nsbsg92
I01
sbsg98
g110
sg100
g5
(g9
S'\x0f\xeb\x057\x92\xb7p@'
p327
tp328
Rp329
sg97
g77
(g78
g79
Ntp330
Rp331
(dp332
g83
I2
sg84
g77
(g88
g79
Ntp333
Rp334
(dp335
g84
Nsg92
I00
sg93
g5
(g9
S'P\x99\xcd\rn0\xe0?'
p336
tp337
Rp338
sg97
Nsbsg98
g120
sg100
g5
(g9
S'`&\x9e\xc5\xcb\xc8\x15@'
p339
tp340
Rp341
sg97
g77
(g78
g79
Ntp342
Rp343
(dp344
g83
I1
sg84
g77
(g88
g79
Ntp345
Rp346
(dp347
g84
Nsg92
I00
sg93
g5
(g9
S'\x00\x00\x00\x00\x00\x00\x00\x00'
p348
tp349
Rp350
sg97
Nsbsg98
g99
sg100
g5
(g9
S'o\xf2?\xb7d\xdcn@'
p351
tp352
Rp353
sg97
g77
(g88
g79
Ntp354
Rp355
(dp356
g84
Nsg92
I00
sg93
g5
(g9
S'\xda\xc9\xcd\x8e\xa8\x9d\xe0?'
p357
tp358
Rp359
sg97
Nsbsg92
I01
sbsg92
I01
sbsg92
I01
sbsg130
(lp360
g307
ag331
ag343
ag355
ag346
ag334
ag310
ag322
ag313
asg132
I9
sbag304
a(iptreeopt.tree
PTree
p361
(dp362
g76
g77
(g78
g79
Ntp363
Rp364
(dp365
g83
I0
sg84
g77
(g78
g79
Ntp366
Rp367
(dp368
g83
I2
sg84
g77
(g88
g79
Ntp369
Rp370
(dp371
g84
Nsg92
I00
sg93
g5
(g9
S'_\xb6\x9f\xfe\xe1\xb0\xd8?'
p372
tp373
Rp374
sg97
Nsbsg98
g120
sg100
g5
(g9
S'\xea#\xcf\xc2\x8a\x1a\x14@'
p375
tp376
Rp377
sg97
g77
(g88
g79
Ntp378
Rp379
(dp380
g84
Nsg92
I00
sg93
g5
(g9
S'\xc7\xfc\xa9\xe9\x12\x96\xe9?'
p381
tp382
Rp383
sg97
Nsbsg92
I01
sbsg98
g110
sg100
g5
(g9
S'\x0f\xeb\x057\x92\xb7p@'
p384
tp385
Rp386
sg97
g77
(g78
g79
Ntp387
Rp388
(dp389
g83
I2
sg84
g77
(g88
g79
Ntp390
Rp391
(dp392
g84
Nsg92
I00
sg93
g5
(g9
S'*\xadaks\x10\xe2?'
p393
tp394
Rp395
sg97
Nsbsg98
g120
sg100
g5
(g9
S'`&\x9e\xc5\xcb\xc8\x15@'
p396
tp397
Rp398
sg97
g77
(g78
g79
Ntp399
Rp400
(dp401
g83
I1
sg84
g77
(g88
g79
Ntp402
Rp403
(dp404
g84
Nsg92
I00
sg93
g5
(g9
S'\x00\x00\x00\x00\x00\x00\x00\x00'
p405
tp406
Rp407
sg97
Nsbsg98
g99
sg100
g5
(g9
S'9\xabq\xb6\xbbrh@'
p408
tp409
Rp410
sg97
g77
(g88
g79
Ntp411
Rp412
(dp413
g84
Nsg92
I00
sg93
g5
(g9
S'\x94\x8dm\t@A\xe2?'
p414
tp415
Rp416
sg97
Nsbsg92
I01
sbsg92
I01
sbsg92
I01
sbsg130
(lp417
g364
ag388
ag400
ag412
ag403
ag391
ag367
ag379
ag370
asg132
I9
sbag361
a(iptreeopt.tree
PTree
p418
(dp419
g76
g77
(g78
g79
Ntp420
Rp421
(dp422
g83
I0
sg84
g77
(g78
g79
Ntp423
Rp424
(dp425
g83
I2
sg84
g77
(g88
g79
Ntp426
Rp427
(dp428
g84
Nsg92
I00
sg93
g5
(g9
S'\xca\xd6\x07\xd6\x12k\xd4?'
p429
tp430
Rp431
sg97
Nsbsg98
g120
sg100
g5
(g9
S'\x06\x02e\x82\xc5\xc3\n@'
p432
tp433
Rp434
sg97
g77
(g88
g79
Ntp435
Rp436
(dp437
g84
Nsg92
I00
sg93
g5
(g9
S'.\x98{\xbd\xb6k\xef?'
p438
tp439
Rp440
sg97
Nsbsg92
I01
sbsg98
g110
sg100
g5
(g9
S'\x00\x00\x00\x00\x00\xe0p@'
p441
tp442
Rp443
sg97
g77
(g78
g79
Ntp444
Rp445
(dp446
g83
I2
sg84
g77
(g88
g79
Ntp447
Rp448
(dp449
g84
Nsg92
I00
sg93
g5
(g9
S'"\x0f:\x01u\xf3\xed?'
p450
tp451
Rp452
sg97
Nsbsg98
g120
sg100
g5
(g9
S'\x11u\x89w\xce\xf5/@'
p453
tp454
Rp455
sg97
g77
(g78
g79
Ntp456
Rp457
(dp458
g83
I1
sg84
g77
(g88
g79
Ntp459
Rp460
(dp461
g84
Nsg92
I00
sg93
g5
(g9
S'\x00\x00\x00\x00\x00\x00\x00\x00'
p462
tp463
Rp464
sg97
Nsbsg98
g99
sg100
g5
(g9
S'\xcb\x08\xb1\xd1\xf9\x0cg@'
p465
tp466
Rp467
sg97
g77
(g88
g79
Ntp468
Rp469
(dp470
g84
Nsg92
I00
sg93
g5
(g9
S'\x933|?5\x85\xe2?'
p471
tp472
Rp473
sg97
Nsbsg92
I01
sbsg92
I01
sbsg92
I01
sbsg130
(lp474
g421
ag445
ag457
ag469
ag460
ag448
ag424
ag436
ag427
asg132
I9
sbag418
a(iptreeopt.tree
PTree
p475
(dp476
g76
g77
(g78
g79
Ntp477
Rp478
(dp479
g83
I0
sg84
g77
(g78
g79
Ntp480
Rp481
(dp482
g83
I2
sg84
g77
(g88
g79
Ntp483
Rp484
(dp485
g84
Nsg92
I00
sg93
g5
(g9
S'!z>v\xb9\xda\xd2?'
p486
tp487
Rp488
sg97
Nsbsg98
g120
sg100
g5
(g9
S'\xa6\xf04,\xa3\x9d\x13@'
p489
tp490
Rp491
sg97
g77
(g88
g79
Ntp492
Rp493
(dp494
g84
Nsg92
I00
sg93
g5
(g9
S"\xbb^\x9b\xdd'\x96\xed?"
p495
tp496
Rp497
sg97
Nsbsg92
I01
sbsg98
g110
sg100
g5
(g9
S'\x00\x00\x00\x00\x00\xe0p@'
p498
tp499
Rp500
sg97
g77
(g78
g79
Ntp501
Rp502
(dp503
g83
I2
sg84
g77
(g88
g79
Ntp504
Rp505
(dp506
g84
Nsg92
I00
sg93
g5
(g9
S'\xf6\xad\xc0\xb8\xbe\x19\xe0?'
p507
tp508
Rp509
sg97
Nsbsg98
g120
sg100
g5
(g9
S'\x91cx\xb8%\x94.@'
p510
tp511
Rp512
sg97
g77
(g78
g79
Ntp513
Rp514
(dp515
g83
I1
sg84
g77
(g88
g79
Ntp516
Rp517
(dp518
g84
Nsg92
I00
sg93
g5
(g9
S'\x00\x00\x00\x00\x00\x00\x00\x00'
p519
tp520
Rp521
sg97
Nsbsg98
g99
sg100
g5
(g9
S'\xaeH\xdeL\xa7\x13g@'
p522
tp523
Rp524
sg97
g77
(g88
g79
Ntp525
Rp526
(dp527
g84
Nsg92
I00
sg93
g5
(g9
S'~\x94(\xabdO\xe3?'
p528
tp529
Rp530
sg97
Nsbsg92
I01
sbsg92
I01
sbsg92
I01
sbsg130
(lp531
g478
ag502
ag514
ag526
ag517
ag505
ag481
ag493
ag484
asg132
I9
sbag475
ag475
ag475
a(iptreeopt.tree
PTree
p532
(dp533
g76
g77
(g78
g79
Ntp534
Rp535
(dp536
g83
I0
sg84
g77
(g78
g79
Ntp537
Rp538
(dp539
g83
I2
sg84
g77
(g88
g79
Ntp540
Rp541
(dp542
g84
Nsg92
I00
sg93
g5
(g9
S'\xd6\xaa\x02p\xce\xed\xa0?'
p543
tp544
Rp545
sg97
Nsbsg98
g120
sg100
g5
(g9
S'2S\xeb\x8bIZ\x13@'
p546
tp547
Rp548
sg97
g77
(g88
g79
Ntp549
Rp550
(dp551
g84
Nsg92
I00
sg93
g5
(g9
S'\x00\x00\x00\x00\x00\x00\xf0?'
p552
tp553
Rp554
sg97
Nsbsg92
I01
sbsg98
g110
sg100
g5
(g9
S'\x00\x00\x00\x00\x00\xe0p@'
p555
tp556
Rp557
sg97
g77
(g78
g79
Ntp558
Rp559
(dp560
g83
I1
sg84
g77
(g88
g79
Ntp561
Rp562
(dp563
g84
Nsg92
I00
sg93
g5
(g9
S'\x00\x00\x00\x00\x00\x00\x00\x00'
p564
tp565
Rp566
sg97
Nsbsg98
g99
sg100
g5
(g9
S'"\xe1\xaf\xfe\xdf\x98f@'
p567
tp568
Rp569
sg97
g77
(g88
g79
Ntp570
Rp571
(dp572
g84
Nsg92
I00
sg93
g5
(g9
S'O\xfdu\xb3\xf7C\xe2?'
p573
tp574
Rp575
sg97
Nsbsg92
I01
sbsg92
I01
sbsg130
(lp576
g535
ag559
ag571
ag562
ag538
ag550
ag541
asg132
I7
sba(iptreeopt.tree
PTree
p577
(dp578
g76
g77
(g78
g79
Ntp579
Rp580
(dp581
g83
I0
sg84
g77
(g78
g79
Ntp582
Rp583
(dp584
g83
I0
sg84
g77
(g78
g79
Ntp585
Rp586
(dp587
g83
I1
sg84
g77
(g88
g79
Ntp588
Rp589
(dp590
g84
Nsg92
I00
sg93
g5
(g9
S'c\x0b>E \xb0\xa1?'
p591
tp592
Rp593
sg97
Nsbsg98
g99
sg100
g5
(g9
S'VL\x87f\xd8\x9aq@'
p594
tp595
Rp596
sg97
g77
(g88
g79
Ntp597
Rp598
(dp599
g84
Nsg92
I00
sg93
g5
(g9
S'\x00\x00\x00\x00\x00\x00\xf0?'
p600
tp601
Rp602
sg97
Nsbsg92
I01
sbsg98
g110
sg100
g5
(g9
S'\x00\x00\x00\x00\x00\xe0p@'
p603
tp604
Rp605
sg97
g77
(g78
g79
Ntp606
Rp607
(dp608
g83
I2
sg84
g77
(g88
g79
Ntp609
Rp610
(dp611
g84
Nsg92
I00
sg93
g5
(g9
S'?\xdc\x84i\x9aA\xe3?'
p612
tp613
Rp614
sg97
Nsbsg98
g120
sg100
g5
(g9
S'l\rN\x04\x88\xd9/@'
p615
tp616
Rp617
sg97
g77
(g78
g79
Ntp618
Rp619
(dp620
g83
I2
sg84
g77
(g88
g79
Ntp621
Rp622
(dp623
g84
Nsg92
I00
sg93
g5
(g9
S'\xac>\xb6\xf0MP\xdf?'
p624
tp625
Rp626
sg97
Nsbsg98
g120
sg100
g5
(g9
S'\xc6\xce\xfa\xf8J\xf0*@'
p627
tp628
Rp629
sg97
g77
(g78
g79
Ntp630
Rp631
(dp632
g83
I1
sg84
g77
(g88
g79
Ntp633
Rp634
(dp635
g84
Nsg92
I00
sg93
g5
(g9
S'\xbc\xb6F\x01\xa9\xc7\x94?'
p636
tp637
Rp638
sg97
Nsbsg98
g99
sg100
g5
(g9
S'\x8dt\x90\xa0o`f@'
p639
tp640
Rp641
sg97
g77
(g88
g79
Ntp642
Rp643
(dp644
g84
Nsg92
I00
sg93
g5
(g9
S'\x9d\x84}\xadz7\xe2?'
p645
tp646
Rp647
sg97
Nsbsg92
I01
sbsg92
I01
sbsg92
I01
sbsg92
I01
sbsg98
g110
sg100
g5
(g9
S'\xf2\x12s[z\xa1p@'
p648
tp649
Rp650
sg97
g77
(g78
g79
Ntp651
Rp652
(dp653
g83
I2
sg84
g77
(g88
g79
Ntp654
Rp655
(dp656
g84
Nsg92
I00
sg93
g5
(g9
S'\xcf5\xac,\xaa\xb0\xec?'
p657
tp658
Rp659
sg97
Nsbsg98
g120
sg100
g5
(g9
S'Z\xd8\xba\x10\x10\x8a*@'
p660
tp661
Rp662
sg97
g77
(g78
g79
Ntp663
Rp664
(dp665
g83
I2
sg84
g77
(g88
g79
Ntp666
Rp667
(dp668
g84
Nsg92
I00
sg93
g5
(g9
S'\xa5\xb1\x00\x0c\x8a\xb9\xe9?'
p669
tp670
Rp671
sg97
Nsbsg98
g120
sg100
g5
(g9
S'\x1e\xb2\xb5\xc4A\x17\x1f@'
p672
tp673
Rp674
sg97
g77
(g78
g79
Ntp675
Rp676
(dp677
g83
I1
sg84
g77
(g88
g79
Ntp678
Rp679
(dp680
g84
Nsg92
I00
sg93
g5
(g9
S'\x00\x00\x00\x00\x00\x00\x00\x00'
p681
tp682
Rp683
sg97
Nsbsg98
g99
sg100
g5
(g9
S'\xe0\xd9\xfc\xe0V\xe5Z@'
p684
tp685
Rp686
sg97
g77
(g88
g79
Ntp687
Rp688
(dp689
g84
Nsg92
I00
sg93
g5
(g9
S'\x00\x00\x00\x00\x00\x00\xf0?'
p690
tp691
Rp692
sg97
Nsbsg92
I01
sbsg92
I01
sbsg92
I01
sbsg92
I01
sbsg130
(lp693
g580
ag652
ag664
ag676
ag688
ag679
ag667
ag655
ag583
ag607
ag619
ag631
ag643
ag634
ag622
ag610
ag586
ag598
ag589
asg132
I19
sba(iptreeopt.tree
PTree
p694
(dp695
g76
g77
(g78
g79
Ntp696
Rp697
(dp698
g83
I0
sg84
g77
(g78
g79
Ntp699
Rp700
(dp701
g83
I0
sg84
g77
(g78
g79
Ntp702
Rp703
(dp704
g83
I1
sg84
g77
(g88
g79
Ntp705
Rp706
(dp707
g84
Nsg92
I00
sg93
g5
(g9
S'c\x0b>E \xb0\xa1?'
p708
tp709
Rp710
sg97
Nsbsg98
g99
sg100
g5
(g9
S'\xd5\tT\xdf>\x1er@'
p711
tp712
Rp713
sg97
g77
(g88
g79
Ntp714
Rp715
(dp716
g84
Nsg92
I00
sg93
g5
(g9
S'\x80\xda\x14\x11\x03\xfa\xef?'
p717
tp718
Rp719
sg97
Nsbsg92
I01
sbsg98
g110
sg100
g5
(g9
S'\x00\x00\x00\x00\x00\xe0p@'
p720
tp721
Rp722
sg97
g77
(g78
g79
Ntp723
Rp724
(dp725
g83
I2
sg84
g77
(g88
g79
Ntp726
Rp727
(dp728
g84
Nsg92
I00
sg93
g5
(g9
S'&H\xec\xc2\xe3U\xed?'
p729
tp730
Rp731
sg97
Nsbsg98
g120
sg100
g5
(g9
S'\xb6\t\x04uE\x05,@'
p732
tp733
Rp734
sg97
g77
(g78
g79
Ntp735
Rp736
(dp737
g83
I2
sg84
g77
(g88
g79
Ntp738
Rp739
(dp740
g84
Nsg92
I00
sg93
g5
(g9
S'\x08E\x93\x99,\xb1\xd5?'
p741
tp742
Rp743
sg97
Nsbsg98
g120
sg100
g5
(g9
S'\xd4P-\x14\xe14\x1c@'
p744
tp745
Rp746
sg97
g77
(g78
g79
Ntp747
Rp748
(dp749
g83
I1
sg84
g77
(g88
g79
Ntp750
Rp751
(dp752
g84
Nsg92
I00
sg93
g5
(g9
S'\x00\x00\x00\x00\x00\x00\x00\x00'
p753
tp754
Rp755
sg97
Nsbsg98
g99
sg100
g5
(g9
S'\x83L\xb2\xbf\\\xdd`@'
p756
tp757
Rp758
sg97
g77
(g88
g79
Ntp759
Rp760
(dp761
g84
Nsg92
I00
sg93
g5
(g9
S'\xd1\xcesl\xc1\\\xec?'
p762
tp763
Rp764
sg97
Nsbsg92
I01
sbsg92
I01
sbsg92
I01
sbsg92
I01
sbsg98
g110
sg100
g5
(g9
S'\x7f\xdd\xd3%\x07\xd7n@'
p765
tp766
Rp767
sg97
g77
(g78
g79
Ntp768
Rp769
(dp770
g83
I2
sg84
g77
(g88
g79
Ntp771
Rp772
(dp773
g84
Nsg92
I00
sg93
g5
(g9
S'\x07\xc8?x<~\xed?'
p774
tp775
Rp776
sg97
Nsbsg98
g120
sg100
g5
(g9
S'\xf7\xde\x94\x94\x96\xad*@'
p777
tp778
Rp779
sg97
g77
(g78
g79
Ntp780
Rp781
(dp782
g83
I2
sg84
g77
(g88
g79
Ntp783
Rp784
(dp785
g84
Nsg92
I00
sg93
g5
(g9
S'\x19\x08\xf9KX\xc2\xe6?'
p786
tp787
Rp788
sg97
Nsbsg98
g120
sg100
g5
(g9
S'\x1e\xb2\xb5\xc4A\x17\x1f@'
p789
tp790
Rp791
sg97
g77
(g78
g79
Ntp792
Rp793
(dp794
g83
I1
sg84
g77
(g88
g79
Ntp795
Rp796
(dp797
g84
Nsg92
I00
sg93
g5
(g9
S'\x82d\x95G~\xd3\xaa?'
p798
tp799
Rp800
sg97
Nsbsg98
g99
sg100
g5
(g9
S'\xe0\xd9\xfc\xe0V\xe5Z@'
p801
tp802
Rp803
sg97
g77
(g88
g79
Ntp804
Rp805
(dp806
g84
Nsg92
I00
sg93
g5
(g9
S'>!9\xaf\x1c^\xec?'
p807
tp808
Rp809
sg97
Nsbsg92
I01
sbsg92
I01
sbsg92
I01
sbsg92
I01
sbsg130
(lp810
g697
ag769
ag781
ag793
ag805
ag796
ag784
ag772
ag700
ag724
ag736
ag748
ag760
ag751
ag739
ag727
ag703
ag715
ag706
asg132
I19
sbag694
ag694
a(iptreeopt.tree
PTree
p811
(dp812
g76
g77
(g78
g79
Ntp813
Rp814
(dp815
g83
I0
sg84
g77
(g78
g79
Ntp816
Rp817
(dp818
g83
I1
sg84
g77
(g88
g79
Ntp819
Rp820
(dp821
g84
Nsg92
I00
sg93
g5
(g9
S'wD\xbd\x0c\xb0\xe8\xd9?'
p822
tp823
Rp824
sg97
Nsbsg98
g99
sg100
g5
(g9
S'\xd5\x16\xa0\x84D\xf3p@'
p825
tp826
Rp827
sg97
g77
(g88
g79
Ntp828
Rp829
(dp830
g84
Nsg92
I00
sg93
g5
(g9
S'\x00\x00\x00\x00\x00\x00\xf0?'
p831
tp832
Rp833
sg97
Nsbsg92
I01
sbsg98
g110
sg100
g5
(g9
S'\xfdO\xa0\xbd\xe6\x1ap@'
p834
tp835
Rp836
sg97
g77
(g78
g79
Ntp837
Rp838
(dp839
g83
I2
sg84
g77
(g88
g79
Ntp840
Rp841
(dp842
g84
Nsg92
I00
sg93
g5
(g9
S'\xe4=b\x0b\xe4\xf6\xed?'
p843
tp844
Rp845
sg97
Nsbsg98
g120
sg100
g5
(g9
S'\x9fI\x861a\xb0!@'
p846
tp847
Rp848
sg97
g77
(g78
g79
Ntp849
Rp850
(dp851
g83
I2
sg84
g77
(g88
g79
Ntp852
Rp853
(dp854
g84
Nsg92
I00
sg93
g5
(g9
S'\xb5G\xf1\xd2\x1a\xda\xee?'
p855
tp856
Rp857
sg97
Nsbsg98
g120
sg100
g5
(g9
S'\x03\xb5\xda\xdf/%\x10@'
p858
tp859
Rp860
sg97
g77
(g78
g79
Ntp861
Rp862
(dp863
g83
I1
sg84
g77
(g88
g79
Ntp864
Rp865
(dp866
g84
Nsg92
I00
sg93
g5
(g9
S'\x85*K\xed\xdf\x1f\x92?'
p867
tp868
Rp869
sg97
Nsbsg98
g99
sg100
g5
(g9
S'%\x9e\xf3T\x81\x04^@'
p870
tp871
Rp872
sg97
g77
(g88
g79
Ntp873
Rp874
(dp875
g84
Nsg92
I00
sg93
g5
(g9
S'3\x84B\xd7\xa1\xa2\xe7?'
p876
tp877
Rp878
sg97
Nsbsg92
I01
sbsg92
I01
sbsg92
I01
sbsg92
I01
sbsg130
(lp879
g814
ag838
ag850
ag862
ag874
ag865
ag853
ag841
ag817
ag829
ag820
asg132
I11
sbag811
a(iptreeopt.tree
PTree
p880
(dp881
g76
g77
(g78
g79
Ntp882
Rp883
(dp884
g83
I0
sg84
g77
(g78
g79
Ntp885
Rp886
(dp887
g83
I1
sg84
g77
(g88
g79
Ntp888
Rp889
(dp890
g84
Nsg92
I00
sg93
g5
(g9
S'\xd1\xa1\t\x1a\xc0\x17\xd2?'
p891
tp892
Rp893
sg97
Nsbsg98
g99
sg100
g5
(g9
S'\x89\r-\x955\x0cr@'
p894
tp895
Rp896
sg97
g77
(g88
g79
Ntp897
Rp898
(dp899
g84
Nsg92
I00
sg93
g5
(g9
S'\x00\x00\x00\x00\x00\x00\xf0?'
p900
tp901
Rp902
sg97
Nsbsg92
I01
sbsg98
g110
sg100
g5
(g9
S'\xbd+q\xdc\x8e\x04p@'
p903
tp904
Rp905
sg97
g77
(g78
g79
Ntp906
Rp907
(dp908
g83
I1
sg84
g77
(g88
g79
Ntp909
Rp910
(dp911
g84
Nsg92
I00
sg93
g5
(g9
S'\x00\x00\x00\x00\x00\x00\x00\x00'
p912
tp913
Rp914
sg97
Nsbsg98
g99
sg100
g5
(g9
S'0\xc5p\xdd,[Z@'
p915
tp916
Rp917
sg97
g77
(g88
g79
Ntp918
Rp919
(dp920
g84
Nsg92
I00
sg93
g5
(g9
S'\xa8\xf2\xde\xeb\xf0q\xed?'
p921
tp922
Rp923
sg97
Nsbsg92
I01
sbsg92
I01
sbsg130
(lp924
g883
ag907
ag919
ag910
ag886
ag898
ag889
asg132
I7
sbag880
ag880
ag880
ag880
ag880
ag880
ag880
ag880
ag880
ag880
ag880
ag880
a(iptreeopt.tree
PTree
p925
(dp926
g76
g77
(g78
g79
Ntp927
Rp928
(dp929
g83
I0
sg84
g77
(g78
g79
Ntp930
Rp931
(dp932
g83
I1
sg84
g77
(g88
g79
Ntp933
Rp934
(dp935
g84
Nsg92
I00
sg93
g5
(g9
S'\x10\x10\xb6\x85\xb1{\xb2?'
p936
tp937
Rp938
sg97
Nsbsg98
g99
sg100
g5
(g9
S"\x9c\xf9$'\xc9<r@"
p939
tp940
Rp941
sg97
g77
(g88
g79
Ntp942
Rp943
(dp944
g84
Nsg92
I00
sg93
g5
(g9
S'\x1b\xf8\xbe\x1ae\xf0\xef?'
p945
tp946
Rp947
sg97
Nsbsg92
I01
sbsg98
g110
sg100
g5
(g9
S'\xedY\x99~\x1f?n@'
p948
tp949
Rp950
sg97
g77
(g78
g79
Ntp951
Rp952
(dp953
g83
I1
sg84
g77
(g88
g79
Ntp954
Rp955
(dp956
g84
Nsg92
I00
sg93
g5
(g9
S'\x00\x00\x00\x00\x00\x00\x00\x00'
p957
tp958
Rp959
sg97
Nsbsg98
g99
sg100
g5
(g9
S'\xf6\x96\xde\xcc\x87\xa6X@'
p960
tp961
Rp962
sg97
g77
(g88
g79
Ntp963
Rp964
(dp965
g84
Nsg92
I00
sg93
g5
(g9
S'\x00\x00\x00\x00\x00\x00\xf0?'
p966
tp967
Rp968
sg97
Nsbsg92
I01
sbsg92
I01
sbsg130
(lp969
g928
ag952
ag964
ag955
ag931
ag943
ag934
asg132
I7
sbag925
ag925
ag925
ag925
ag925
ag925
ag925
ag925
ag925
ag925
ag925
ag925
ag925
ag925
ag925
ag925
ag925
ag925
ag925
ag925
ag925
ag925
ag925
ag925
ag925
ag925
a(iptreeopt.tree
PTree
p970
(dp971
g76
g77
(g78
g79
Ntp972
Rp973
(dp974
g83
I0
sg84
g77
(g78
g79
Ntp975
Rp976
(dp977
g83
I1
sg84
g77
(g88
g79
Ntp978
Rp979
(dp980
g84
Nsg92
I00
sg93
g5
(g9
S'\x1c\n\xef\xd4\x17*\xb0?'
p981
tp982
Rp983
sg97
Nsbsg98
g99
sg100
g5
(g9
S'3k]>\xa1\x84r@'
p984
tp985
Rp986
sg97
g77
(g88
g79
Ntp987
Rp988
(dp989
g84
Nsg92
I00
sg93
g5
(g9
S'\x00\x00\x00\x00\x00\x00\xf0?'
p990
tp991
Rp992
sg97
Nsbsg92
I01
sbsg98
g110
sg100
g5
(g9
S'9kf\t\xdf\xcco@'
p993
tp994
Rp995
sg97
g77
(g78
g79
Ntp996
Rp997
(dp998
g83
I1
sg84
g77
(g88
g79
Ntp999
Rp1000
(dp1001
g84
Nsg92
I00
sg93
g5
(g9
S'\x00\x00\x00\x00\x00\x00\x00\x00'
p1002
tp1003
Rp1004
sg97
Nsbsg98
g99
sg100
g5
(g9
S'\xed\xef\xcbj\x9b\xc1b@'
p1005
tp1006
Rp1007
sg97
g77
(g88
g79
Ntp1008
Rp1009
(dp1010
g84
Nsg92
I00
sg93
g5
(g9
S"\x0fL\xacE6'\xe6?"
p1011
tp1012
Rp1013
sg97
Nsbsg92
I01
sbsg92
I01
sbsg130
(lp1014
g973
ag997
ag1009
ag1000
ag976
ag988
ag979
asg132
I7
sba(iptreeopt.tree
PTree
p1015
(dp1016
g76
g77
(g78
g79
Ntp1017
Rp1018
(dp1019
g83
I0
sg84
g77
(g78
g79
Ntp1020
Rp1021
(dp1022
g83
I1
sg84
g77
(g88
g79
Ntp1023
Rp1024
(dp1025
g84
Nsg92
I00
sg93
g5
(g9
S'8\xec\xb1\x12n\xcf\xad?'
p1026
tp1027
Rp1028
sg97
Nsbsg98
g99
sg100
g5
(g9
S'3k]>\xa1\x84r@'
p1029
tp1030
Rp1031
sg97
g77
(g88
g79
Ntp1032
Rp1033
(dp1034
g84
Nsg92
I00
sg93
g5
(g9
S'\x1e\xc5\xaf\t\xcf\x8a\xef?'
p1035
tp1036
Rp1037
sg97
Nsbsg92
I01
sbsg98
g110
sg100
g5
(g9
S'\x84\xcd&\xe5Y\xaco@'
p1038
tp1039
Rp1040
sg97
g77
(g78
g79
Ntp1041
Rp1042
(dp1043
g83
I1
sg84
g77
(g88
g79
Ntp1044
Rp1045
(dp1046
g84
Nsg92
I00
sg93
g5
(g9
S'\x00\x00\x00\x00\x00\x00\x00\x00'
p1047
tp1048
Rp1049
sg97
Nsbsg98
g99
sg100
g5
(g9
S'\xdf-\xe9t\xee\xcfa@'
p1050
tp1051
Rp1052
sg97
g77
(g88
g79
Ntp1053
Rp1054
(dp1055
g84
Nsg92
I00
sg93
g5
(g9
S'4\xebP\x94k_\xe6?'
p1056
tp1057
Rp1058
sg97
Nsbsg92
I01
sbsg92
I01
sbsg130
(lp1059
g1018
ag1042
ag1054
ag1045
ag1021
ag1033
ag1024
asg132
I7
sbag1015
ag1015
ag1015
ag1015
ag1015
ag1015
ag1015
ag1015
ag1015
ag1015
ag1015
ag1015
ag1015
ag1015
ag1015
ag1015
ag1015
ag1015
ag1015
ag1015
ag1015
ag1015
ag1015
ag1015
ag1015
ag1015
ag1015
ag1015
ag1015
ag1015
ag1015
ag1015
ag1015
ag1015
ag1015
ag1015
ag1015
ag1015
ag1015
ag1015
ag1015
ag1015
ag1015
ag1015
ag1015
ag1015
ag1015
ag1015
ag1015
ag1015
ag1015
ag1015
ag1015
ag1015
ag1015
ag1015
ag1015
ag1015
ag1015
ag1015
ag1015
ag1015
ag1015
ag1015
ag1015
ag1015
ag1015
ag1015
ag1015
ag1015
ag1015
ag1015
ag1015
ag1015
ag1015
ag1015
ag1015
ag1015
ag1015
ag1015
ag1015
ag1015
a(iptreeopt.tree
PTree
p1060
(dp1061
g76
g77
(g78
g79
Ntp1062
Rp1063
(dp1064
g83
I0
sg84
g77
(g78
g79
Ntp1065
Rp1066
(dp1067
g83
I1
sg84
g77
(g88
g79
Ntp1068
Rp1069
(dp1070
g84
Nsg92
I00
sg93
g5
(g9
S'\xe4\xca\x9d@\x99\xb3\xa9?'
p1071
tp1072
Rp1073
sg97
Nsbsg98
g99
sg100
g5
(g9
S'\xa0\xe5\xe5Y\xde\x88r@'
p1074
tp1075
Rp1076
sg97
g77
(g88
g79
Ntp1077
Rp1078
(dp1079
g84
Nsg92
I00
sg93
g5
(g9
S'68\xfe`\x06\x8d\xed?'
p1080
tp1081
Rp1082
sg97
Nsbsg92
I01
sbsg98
g110
sg100
g5
(g9
S'\x00\x00\x00\x00\x00\xe0p@'
p1083
tp1084
Rp1085
sg97
g77
(g78
g79
Ntp1086
Rp1087
(dp1088
g83
I1
sg84
g77
(g88
g79
Ntp1089
Rp1090
(dp1091
g84
Nsg92
I00
sg93
g5
(g9
S'\x00\x00\x00\x00\x00\x00\x00\x00'
p1092
tp1093
Rp1094
sg97
Nsbsg98
g99
sg100
g5
(g9
S'ma\x8c\xf9\x86\x8do@'
p1095
tp1096
Rp1097
sg97
g77
(g88
g79
Ntp1098
Rp1099
(dp1100
g84
Nsg92
I00
sg93
g5
(g9
S'.\x8d\xa4\\*9\xdc?'
p1101
tp1102
Rp1103
sg97
Nsbsg92
I01
sbsg92
I01
sbsg130
(lp1104
g1063
ag1087
ag1099
ag1090
ag1066
ag1078
ag1069
asg132
I7
sbag1060
ag1060
ag1060
ag1060
ag1060
ag1060
ag1060
ag1060
ag1060
ag1060
ag1060
ag1060
ag1060
ag1060
ag1060
ag1060
ag1060
ag1060
ag1060
ag1060
ag1060
ag1060
ag1060
ag1060
ag1060
ag1060
ag1060
ag1060
ag1060
ag1060
ag1060
ag1060
ag1060
ag1060
ag1060
ag1060
ag1060
ag1060
ag1060
ag1060
ag1060
ag1060
ag1060
ag1060
ag1060
ag1060
ag1060
ag1060
ag1060
ag1060
ag1060
ag1060
ag1060
ag1060
ag1060
ag1060
ag1060
ag1060
ag1060
ag1060
ag1060
ag1060
ag1060
ag1060
ag1060
ag1060
ag1060
ag1060
ag1060
ag1060
ag1060
ag1060
ag1060
ag1060
ag1060
ag1060
ag1060
ag1060
ag1060
ag1060
ag1060
ag1060
ag1060
ag1060
ag1060
ag1060
ag1060
ag1060
ag1060
ag1060
ag1060
ag1060
ag1060
ag1060
ag1060
ag1060
ag1060
ag1060
ag1060
ag1060
ag1060
ag1060
ag1060
ag1060
ag1060
ag1060
ag1060
ag1060
ag1060
ag1060
ag1060
ag1060
ag1060
ag1060
ag1060
ag1060
ag1060
ag1060
ag1060
ag1060
ag1060
a(iptreeopt.tree
PTree
p1105
(dp1106
g76
g77
(g78
g79
Ntp1107
Rp1108
(dp1109
g83
I0
sg84
g77
(g78
g79
Ntp1110
Rp1111
(dp1112
g83
I1
sg84
g77
(g88
g79
Ntp1113
Rp1114
(dp1115
g84
Nsg92
I00
sg93
g5
(g9
S'6\xbdaB\x0b\x1a\xa0?'
p1116
tp1117
Rp1118
sg97
Nsbsg98
g99
sg100
g5
(g9
S'\xc0\x0c\x1e\xbfD&r@'
p1119
tp1120
Rp1121
sg97
g77
(g88
g79
Ntp1122
Rp1123
(dp1124
g84
Nsg92
I00
sg93
g5
(g9
S'\x00\x00\x00\x00\x00\x00\xf0?'
p1125
tp1126
Rp1127
sg97
Nsbsg92
I01
sbsg98
g110
sg100
g5
(g9
S'\x00\x00\x00\x00\x00\xe0p@'
p1128
tp1129
Rp1130
sg97
g77
(g78
g79
Ntp1131
Rp1132
(dp1133
g83
I1
sg84
g77
(g88
g79
Ntp1134
Rp1135
(dp1136
g84
Nsg92
I00
sg93
g5
(g9
S'\x00\x00\x00\x00\x00\x00\x00\x00'
p1137
tp1138
Rp1139
sg97
Nsbsg98
g99
sg100
g5
(g9
S'o-\xf9\xe4\xb9No@'
p1140
tp1141
Rp1142
sg97
g77
(g88
g79
Ntp1143
Rp1144
(dp1145
g84
Nsg92
I00
sg93
g5
(g9
S'.\x8d\xa4\\*9\xdc?'
p1146
tp1147
Rp1148
sg97
Nsbsg92
I01
sbsg92
I01
sbsg130
(lp1149
g1108
ag1132
ag1144
ag1135
ag1111
ag1123
ag1114
asg132
I7
sbag1105
ag1105
ag1105
ag1105
ag1105
ag1105
ag1105
ag1105
ag1105
ag1105
ag1105
ag1105
ag1105
ag1105
ag1105
ag1105
ag1105
ag1105
ag1105
ag1105
ag1105
ag1105
ag1105
ag1105
ag1105
ag1105
ag1105
ag1105
ag1105
ag1105
ag1105
ag1105
ag1105
ag1105
ag1105
ag1105
ag1105
ag1105
ag1105
ag1105
ag1105
ag1105
ag1105
ag1105
ag1105
ag1105
ag1105
ag1105
ag1105
ag1105
ag1105
ag1105
ag1105
ag1105
ag1105
ag1105
ag1105
ag1105
ag1105
ag1105
ag1105
ag1105
ag1105
ag1105
ag1105
ag1105
ag1105
ag1105
ag1105
ag1105
ag1105
ag1105
ag1105
ag1105
ag1105
ag1105
ag1105
ag1105
ag1105
ag1105
ag1105
ag1105
ag1105
ag1105
ag1105
ag1105
ag1105
ag1105
ag1105
ag1105
ag1105
ag1105
ag1105
ag1105
ag1105
ag1105
ag1105
ag1105
ag1105
ag1105
ag1105
ag1105
ag1105
ag1105
ag1105
ag1105
ag1105
ag1105
ag1105
ag1105
ag1105
ag1105
ag1105
ag1105
ag1105
ag1105
ag1105
ag1105
ag1105
ag1105
ag1105
ag1105
ag1105
ag1105
ag1105
ag1105
ag1105
ag1105
ag1105
ag1105
ag1105
ag1105
ag1105
ag1105
ag1105
ag1105
ag1105
ag1105
ag1105
ag1105
ag1105
ag1105
ag1105
ag1105
ag1105
ag1105
ag1105
ag1105
ag1105
ag1105
ag1105
ag1105
ag1105
ag1105
ag1105
ag1105
ag1105
ag1105
ag1105
ag1105
ag1105
ag1105
ag1105
ag1105
ag1105
ag1105
ag1105
ag1105
ag1105
ag1105
ag1105
ag1105
ag1105
ag1105
ag1105
ag1105
ag1105
ag1105
ag1105
ag1105
ag1105
ag1105
ag1105
ag1105
ag1105
ag1105
ag1105
ag1105
ag1105
ag1105
ag1105
ag1105
ag1105
ag1105
ag1105
ag1105
ag1105
ag1105
ag1105
ag1105
ag1105
ag1105
ag1105
ag1105
ag1105
ag1105
ag1105
ag1105
ag1105
ag1105
ag1105
ag1105
ag1105
ag1105
ag1105
ag1105
ag1105
ag1105
ag1105
ag1105
ag1105
ag1105
ag1105
ag1105
ag1105
ag1105
ag1105
ag1105
ag1105
ag1105
ag1105
ag1105
ag1105
ag1105
ag1105
ag1105
ag1105
ag1105
ag1105
ag1105
ag1105
ag1105
ag1105
ag1105
ag1105
ag1105
ag1105
ag1105
ag1105
ag1105
ag1105
ag1105
ag1105
ag1105
ag1105
ag1105
ag1105
ag1105
a(iptreeopt.tree
PTree
p1150
(dp1151
g76
g77
(g78
g79
Ntp1152
Rp1153
(dp1154
g83
I0
sg84
g77
(g78
g79
Ntp1155
Rp1156
(dp1157
g83
I1
sg84
g77
(g88
g79
Ntp1158
Rp1159
(dp1160
g84
Nsg92
I00
sg93
g5
(g9
S'\xdbo\x9eY\xce\x8e\x90?'
p1161
tp1162
Rp1163
sg97
Nsbsg98
g99
sg100
g5
(g9
S'\xbd\xb4\xcf\x11\xb26r@'
p1164
tp1165
Rp1166
sg97
g77
(g88
g79
Ntp1167
Rp1168
(dp1169
g84
Nsg92
I00
sg93
g5
(g9
S'\xea2\x87\x8c\x9f\xee\xef?'
p1170
tp1171
Rp1172
sg97
Nsbsg92
I01
sbsg98
g110
sg100
g5
(g9
S'\x00\x00\x00\x00\x00\xe0p@'
p1173
tp1174
Rp1175
sg97
g77
(g78
g79
Ntp1176
Rp1177
(dp1178
g83
I1
sg84
g77
(g88
g79
Ntp1179
Rp1180
(dp1181
g84
Nsg92
I00
sg93
g5
(g9
S'\xa4o}\xec\x00_\x7f?'
p1182
tp1183
Rp1184
sg97
Nsbsg98
g99
sg100
g5
(g9
S'o-\xf9\xe4\xb9No@'
p1185
tp1186
Rp1187
sg97
g77
(g88
g79
Ntp1188
Rp1189
(dp1190
g84
Nsg92
I00
sg93
g5
(g9
S'.\x8d\xa4\\*9\xdc?'
p1191
tp1192
Rp1193
sg97
Nsbsg92
I01
sbsg92
I01
sbsg130
(lp1194
g1153
ag1177
ag1189
ag1180
ag1156
ag1168
ag1159
asg132
I7
sbag1150
ag1150
ag1150
ag1150
ag1150
ag1150
ag1150
ag1150
ag1150
ag1150
ag1150
ag1150
ag1150
ag1150
ag1150
ag1150
ag1150
ag1150
ag1150
ag1150
ag1150
ag1150
ag1150
ag1150
ag1150
ag1150
ag1150
ag1150
ag1150
ag1150
ag1150
ag1150
ag1150
ag1150
ag1150
ag1150
ag1150
ag1150
ag1150
ag1150
ag1150
ag1150
ag1150
ag1150
ag1150
ag1150
ag1150
ag1150
ag1150
ag1150
ag1150
ag1150
ag1150
ag1150
ag1150
ag1150
ag1150
ag1150
ag1150
ag1150
ag1150
ag1150
ag1150
ag1150
ag1150
ag1150
ag1150
ag1150
ag1150
ag1150
ag1150
ag1150
ag1150
ag1150
ag1150
ag1150
ag1150
ag1150
ag1150
ag1150
ag1150
ag1150
ag1150
ag1150
ag1150
ag1150
ag1150
ag1150
ag1150
ag1150
ag1150
ag1150
ag1150
ag1150
ag1150
ag1150
ag1150
ag1150
ag1150
ag1150
ag1150
ag1150
ag1150
ag1150
ag1150
ag1150
ag1150
ag1150
ag1150
ag1150
ag1150
ag1150
ag1150
ag1150
ag1150
ag1150
ag1150
ag1150
ag1150
ag1150
ag1150
ag1150
ag1150
ag1150
ag1150
ag1150
ag1150
ag1150
ag1150
ag1150
ag1150
ag1150
ag1150
ag1150
ag1150
ag1150
ag1150
ag1150
ag1150
ag1150
ag1150
ag1150
ag1150
ag1150
ag1150
ag1150
ag1150
ag1150
ag1150
ag1150
ag1150
ag1150
ag1150
ag1150
ag1150
ag1150
ag1150
ag1150
ag1150
ag1150
ag1150
ag1150
ag1150
ag1150
ag1150
ag1150
ag1150
ag1150
ag1150
ag1150
ag1150
ag1150
ag1150
ag1150
ag1150
ag1150
ag1150
ag1150
ag1150
ag1150
ag1150
ag1150
ag1150
ag1150
ag1150
ag1150
ag1150
ag1150
ag1150
ag1150
ag1150
ag1150
ag1150
ag1150
ag1150
ag1150
ag1150
ag1150
ag1150
ag1150
ag1150
ag1150
ag1150
ag1150
ag1150
ag1150
ag1150
ag1150
ag1150
ag1150
ag1150
ag1150
ag1150
ag1150
ag1150
ag1150
ag1150
ag1150
ag1150
ag1150
ag1150
ag1150
ag1150
ag1150
a(iptreeopt.tree
PTree
p1195
(dp1196
g76
g77
(g78
g79
Ntp1197
Rp1198
(dp1199
g83
I0
sg84
g77
(g78
g79
Ntp1200
Rp1201
(dp1202
g83
I1
sg84
g77
(g88
g79
Ntp1203
Rp1204
(dp1205
g84
Nsg92
I00
sg93
g5
(g9
S'^z\xec\xb3;:\xba?'
p1206
tp1207
Rp1208
sg97
Nsbsg98
g99
sg100
g5
(g9
S']2\xbb\x9a \xc5r@'
p1209
tp1210
Rp1211
sg97
g77
(g88
g79
Ntp1212
Rp1213
(dp1214
g84
Nsg92
I00
sg93
g5
(g9
S'\x00\x00\x00\x00\x00\x00\xf0?'
p1215
tp1216
Rp1217
sg97
Nsbsg92
I01
sbsg98
g110
sg100
g5
(g9
S'\x00\x00\x00\x00\x00\xe0p@'
p1218
tp1219
Rp1220
sg97
g77
(g78
g79
Ntp1221
Rp1222
(dp1223
g83
I1
sg84
g77
(g88
g79
Ntp1224
Rp1225
(dp1226
g84
Nsg92
I00
sg93
g5
(g9
S'\x00\x00\x00\x00\x00\x00\x00\x00'
p1227
tp1228
Rp1229
sg97
Nsbsg98
g99
sg100
g5
(g9
S'\x1fI\x15\x9f\xec:g@'
p1230
tp1231
Rp1232
sg97
g77
(g88
g79
Ntp1233
Rp1234
(dp1235
g84
Nsg92
I00
sg93
g5
(g9
S'\xaaY$nrw\xe2?'
p1236
tp1237
Rp1238
sg97
Nsbsg92
I01
sbsg92
I01
sbsg130
(lp1239
g1198
ag1222
ag1234
ag1225
ag1201
ag1213
ag1204
asg132
I7
sbag1195
ag1195
ag1195
ag1195
ag1195
ag1195
ag1195
ag1195
ag1195
ag1195
ag1195
ag1195
ag1195
ag1195
ag1195
ag1195
ag1195
ag1195
ag1195
ag1195
ag1195
ag1195
ag1195
ag1195
ag1195
ag1195
ag1195
ag1195
ag1195
ag1195
ag1195
ag1195
ag1195
ag1195
ag1195
ag1195
ag1195
ag1195
ag1195
ag1195
ag1195
ag1195
ag1195
ag1195
ag1195
ag1195
ag1195
ag1195
ag1195
ag1195
ag1195
ag1195
ag1195
ag1195
ag1195
ag1195
ag1195
ag1195
ag1195
ag1195
ag1195
ag1195
ag1195
ag1195
ag1195
ag1195
ag1195
ag1195
ag1195
ag1195
ag1195
ag1195
ag1195
ag1195
ag1195
ag1195
ag1195
ag1195
ag1195
ag1195
ag1195
ag1195
ag1195
ag1195
ag1195
ag1195
ag1195
ag1195
ag1195
ag1195
ag1195
ag1195
ag1195
ag1195
ag1195
ag1195
ag1195
ag1195
ag1195
ag1195
ag1195
ag1195
ag1195
ag1195
ag1195
ag1195
ag1195
ag1195
ag1195
ag1195
ag1195
ag1195
ag1195
ag1195
ag1195
ag1195
ag1195
ag1195
ag1195
ag1195
ag1195
ag1195
ag1195
ag1195
ag1195
ag1195
ag1195
ag1195
ag1195
ag1195
ag1195
ag1195
ag1195
ag1195
ag1195
ag1195
ag1195
ag1195
ag1195
ag1195
ag1195
ag1195
ag1195
ag1195
ag1195
ag1195
ag1195
ag1195
ag1195
ag1195
ag1195
ag1195
ag1195
ag1195
ag1195
ag1195
ag1195
ag1195
ag1195
ag1195
ag1195
ag1195
ag1195
ag1195
ag1195
ag1195
ag1195
ag1195
ag1195
ag1195
ag1195
ag1195
ag1195
ag1195
ag1195
ag1195
ag1195
ag1195
ag1195
ag1195
ag1195
ag1195
ag1195
ag1195
ag1195
ag1195
ag1195
ag1195
ag1195
ag1195
ag1195
ag1195
ag1195
ag1195
ag1195
ag1195
ag1195
ag1195
ag1195
ag1195
ag1195
ag1195
ag1195
ag1195
ag1195
ag1195
ag1195
ag1195
ag1195
ag1195
ag1195
ag1195
ag1195
ag1195
ag1195
ag1195
ag1195
ag1195
ag1195
ag1195
ag1195
ag1195
ag1195
ag1195
ag1195
ag1195
ag1195
ag1195
ag1195
ag1195
ag1195
ag1195
ag1195
ag1195
ag1195
ag1195
ag1195
ag1195
ag1195
ag1195
ag1195
ag1195
ag1195
ag1195
ag1195
ag1195
ag1195
ag1195
ag1195
ag1195
ag1195
ag1195
ag1195
ag1195
ag1195
ag1195
ag1195
ag1195
ag1195
ag1195
ag1195
ag1195
ag1195
ag1195
ag1195
ag1195
ag1195
ag1195
ag1195
ag1195
ag1195
ag1195
ag1195
ag1195
ag1195
ag1195
ag1195
ag1195
ag1195
ag1195
ag1195
ag1195
ag1195
ag1195
ag1195
ag1195
ag1195
asS'time'
p1240
(lp1241
I1
aI2
aI3
aI4
aI5
aI6
aI7
aI8
aI9
aI10
aI11
aI12
aI13
aI14
aI15
aI17
aI18
aI19
aI20
aI21
aI22
aI23
aI24
aI25
aI27
aI28
aI29
aI30
aI31
aI32
aI33
aI34
aI35
aI36
aI37
aI38
aI39
aI40
aI41
aI42
aI43
aI44
aI46
aI47
aI48
aI49
aI50
aI51
aI52
aI53
aI54
aI55
aI56
aI57
aI58
aI59
aI60
aI61
aI62
aI63
aI64
aI66
aI67
aI68
aI69
aI70
aI71
aI72
aI73
aI74
aI75
aI76
aI77
aI78
aI79
aI80
aI81
aI82
aI83
aI85
aI86
aI87
aI88
aI89
aI90
aI91
aI92
aI93
aI94
aI95
aI96
aI97
aI98
aI99
aI101
aI102
aI103
aI104
aI105
aI106
aI107
aI108
aI109
aI110
aI112
aI113
aI114
aI115
aI116
aI117
aI118
aI119
aI120
aI121
aI122
aI124
aI125
aI126
aI127
aI128
aI129
aI130
aI131
aI132
aI134
aI135
aI136
aI137
aI138
aI139
aI140
aI141
aI143
aI144
aI145
aI146
aI147
aI148
aI149
aI150
aI151
aI152
aI154
aI155
aI156
aI157
aI158
aI159
aI160
aI161
aI162
aI163
aI164
aI166
aI167
aI168
aI169
aI170
aI171
aI172
aI173
aI174
aI175
aI176
aI177
aI178
aI179
aI180
aI181
aI182
aI183
aI184
aI185
aI187
aI188
aI189
aI190
aI191
aI192
aI193
aI194
aI195
aI196
aI198
aI199
aI200
aI201
aI202
aI203
aI204
aI205
aI206
aI207
aI208
aI210
aI211
aI212
aI213
aI214
aI215
aI216
aI217
aI218
aI219
aI221
aI222
aI223
aI224
aI225
aI226
aI227
aI228
aI229
aI230
aI231
aI232
aI233
aI235
aI236
aI237
aI238
aI239
aI240
aI241
aI242
aI243
aI244
aI246
aI247
aI248
aI249
aI250
aI251
aI252
aI253
aI254
aI256
aI257
aI258
aI259
aI260
aI261
aI262
aI263
aI264
aI265
aI267
aI268
aI269
aI270
aI271
aI272
aI273
aI274
aI275
aI277
aI278
aI279
aI280
aI281
aI282
aI283
aI284
aI285
aI286
aI287
aI288
aI289
aI291
aI292
aI293
aI294
aI295
aI296
aI297
aI298
aI299
aI300
aI301
aI302
aI304
aI305
aI306
aI307
aI308
aI309
aI310
aI311
aI312
aI313
aI314
aI316
aI317
aI318
aI319
aI320
aI321
aI322
aI323
aI324
aI325
aI326
aI327
aI329
aI330
aI331
aI332
aI333
aI334
aI335
aI336
aI337
aI338
aI340
aI341
aI342
aI343
aI344
aI345
aI346
aI347
aI348
aI349
aI350
aI352
aI353
aI354
aI355
aI356
aI357
aI358
aI359
aI360
aI361
aI362
aI363
aI364
aI365
aI366
aI367
aI368
aI369
aI370
aI372
aI373
aI374
aI375
aI376
aI377
aI378
aI379
aI380
aI381
aI382
aI383
aI385
aI386
aI387
aI388
aI389
aI390
aI391
aI392
aI393
aI394
aI395
aI396
aI398
aI399
aI400
aI401
aI402
aI403
aI404
aI405
aI406
aI407
aI408
aI409
aI410
aI412
aI413
aI414
aI415
aI416
aI417
aI418
aI419
aI420
aI421
aI422
aI424
aI425
aI426
aI427
aI428
aI429
aI430
aI431
aI432
aI433
aI434
aI435
aI436
aI437
aI438
aI439
aI440
aI442
aI443
aI444
aI445
aI446
aI447
aI448
aI449
aI450
aI451
aI452
aI453
aI454
aI455
aI456
aI457
aI458
aI459
aI460
aI461
aI462
aI464
aI465
aI466
aI467
aI468
aI469
aI470
aI471
aI472
aI473
aI474
aI475
aI476
aI477
aI478
aI479
aI480
aI482
aI483
aI484
aI485
aI486
aI487
aI488
aI489
aI490
aI491
aI492
aI493
aI494
aI495
aI496
aI497
aI499
aI500
aI501
aI502
aI503
aI504
aI505
aI506
aI507
aI508
aI509
aI510
aI511
aI512
aI513
aI514
aI515
aI516
aI517
aI518
aI520
aI521
aI522
aI523
aI524
aI525
aI526
aI527
aI528
aI529
aI530
aI531
aI532
aI533
aI534
aI535
aI536
aI537
aI538
aI539
aI540
aI541
aI542
aI544
aI545
aI546
aI547
aI548
aI549
aI550
aI551
aI552
aI553
aI554
aI555
aI556
aI558
aI559
aI560
aI561
aI562
aI563
aI564
aI565
aI566
aI567
aI568
aI569
aI570
aI571
aI572
aI573
aI574
aI575
aI577
aI578
aI579
aI580
aI581
aI582
aI583
aI584
aI585
aI586
aI587
aI588
aI589
aI591
aI592
aI593
aI594
aI595
aI596
aI597
aI598
aI599
aI600
aI601
aI602
aI603
aI604
aI605
aI606
aI607
aI608
aI609
aI611
aI612
aI613
aI614
aI615
aI616
aI617
aI618
aI619
aI620
aI621
aI622
aI623
aI625
aI626
aI627
aI628
aI629
aI630
aI631
aI632
aI633
aI634
aI635
aI637
aI638
aI639
aI640
aI641
aI642
aI643
aI644
aI645
aI646
aI648
aI649
aI650
aI651
aI652
aI653
aI654
aI655
aI656
aI657
aI659
aI660
aI661
aI662
aI663
aI664
aI665
aI666
aI667
aI668
aI670
aI671
aI672
aI673
aI674
aI675
aI676
aI677
aI678
aI679
aI681
aI682
aI683
aI684
aI685
aI686
aI687
aI688
aI689
aI690
aI691
aI693
aI694
aI695
aI696
aI697
aI698
aI699
aI700
aI701
aI702
aI703
aI704
aI706
aI707
aI708
aI709
aI710
aI711
aI712
aI713
aI714
aI715
aI716
aI717
aI718
aI719
aI720
aI721
aI722
aI724
aI725
aI726
aI727
aI728
aI729
aI730
aI731
aI732
aI733
aI734
aI735
aI736
aI737
aI738
aI739
aI740
aI741
aI742
aI743
aI744
aI745
aI747
aI748
aI749
aI750
aI751
aI752
aI753
aI754
aI755
aI756
aI757
aI758
aI759
aI760
aI761
aI762
aI763
aI764
aI765
aI766
aI768
aI769
aI770
aI771
aI772
aI773
aI774
aI775
aI776
aI777
aI778
aI779
aI780
aI781
aI782
aI783
aI784
aI785
aI786
aI788
aI789
aI790
aI791
aI792
aI793
aI794
aI795
aI796
aI797
aI798
aI800
aI801
aI802
aI803
aI804
aI805
aI806
aI807
aI808
aI809
aI811
aI812
aI813
aI814
aI815
aI816
aI817
aI818
aI819
aI820
aI821
aI822
aI823
aI824
aI825
aI826
aI827
aI828
aI829
aI830
aI831
aI832
aI833
aI835
aI836
aI837
aI838
aI839
aI840
aI841
aI842
aI843
aI844
aI845
aI846
aI847
aI848
aI849
aI851
aI852
aI853
aI854
aI855
aI856
aI857
aI858
aI859
aI860
aI861
aI862
aI863
aI864
aI865
aI866
aI867
aI868
aI869
aI871
aI872
aI873
aI874
aI875
aI876
aI877
aI878
aI879
aI880
aI881
aI882
aI883
aI884
aI885
aI886
aI887
aI888
aI889
aI890
aI892
aI893
aI894
aI895
aI896
aI897
aI898
aI899
aI900
aI901
aI902
aI903
aI904
aI905
aI906
aI908
aI909
aI910
aI911
aI912
aI913
aI914
aI915
aI916
aI917
aI918
aI919
aI920
aI921
aI922
aI924
aI925
aI926
aI927
aI928
aI929
aI930
aI931
aI932
aI933
aI934
aI935
aI937
aI938
aI939
aI940
aI941
aI942
aI943
aI944
aI945
aI947
aI948
aI949
aI950
aI951
aI952
aI953
aI954
aI955
aI957
aI958
aI959
aI960
aI961
aI962
aI963
aI964
aI965
aI966
aI967
aI969
aI970
aI971
aI972
aI973
aI974
aI975
aI976
aI977
aI978
aI979
aI981
aI982
aI983
aI984
aI985
aI986
aI987
aI988
aI989
aI990
aI991
aI992
aI993
aI994
aI995
aI996
aI997
aI998
aI1000
aI1001
aI1002
aI1003
aI1004
aI1005
aI1006
aI1007
aI1008
aI1009
aI1010
aI1011
aI1012
aI1013
aI1014
aI1015
aI1016
aI1017
aI1018
aI1019
aI1020
aI1022
aI1023
aI1024
aI1025
aI1026
aI1027
aI1028
aI1029
aI1030
aI1031
aI1032
aI1033
aI1034
aI1035
aI1036
aI1037
aI1038
aI1039
aI1040
aI1041
aI1043
aI1044
aI1045
aI1046
aI1047
aI1048
aI1049
aI1050
aI1051
aI1052
aI1053
aI1055
aI1056
aI1057
aI1058
aI1059
aI1060
aI1061
aI1062
aI1063
aI1064
aI1065
aI1067
aI1068
aI1069
aI1070
aI1071
aI1072
aI1073
aI1074
aI1075
aI1076
aI1077
aI1078
aI1079
aI1081
aI1082
aI1083
aI1084
aI1085
aI1086
aI1087
aI1088
aI1089
aI1090
aI1091
aI1092
aI1093
aI1094
aI1095
aI1096
aI1097
aI1099
aI1100
aI1101
aI1102
aI1103
aI1104
aI1105
aI1106
aI1107
aI1108
aI1109
aI1110
aI1111
aI1112
aI1113
aI1114
aI1115
aI1116
as.