(dp0
S'nfe'
p1
(lp2
I192
aI384
aI576
aI768
aI960
aI1152
aI1344
aI1536
aI1728
aI1920
aI2112
aI2304
aI2496
aI2688
aI2880
aI3072
aI3264
aI3456
aI3648
aI3840
aI4032
aI4224
aI4416
aI4608
aI4800
aI4992
aI5184
aI5376
aI5568
aI5760
aI5952
aI6144
aI6336
aI6528
aI6720
aI6912
aI7104
aI7296
aI7488
aI7680
aI7872
aI8064
aI8256
aI8448
aI8640
aI8832
aI9024
aI9216
aI9408
aI9600
aI9792
aI9984
aI10176
aI10368
aI10560
aI10752
aI10944
aI11136
aI11328
aI11520
aI11712
aI11904
aI12096
aI12288
aI12480
aI12672
aI12864
aI13056
aI13248
aI13440
aI13632
aI13824
aI14016
aI14208
aI14400
aI14592
aI14784
aI14976
aI15168
aI15360
aI15552
aI15744
aI15936
aI16128
aI16320
aI16512
aI16704
aI16896
aI17088
aI17280
aI17472
aI17664
aI17856
aI18048
aI18240
aI18432
aI18624
aI18816
aI19008
aI19200
aI19392
aI19584
aI19776
aI19968
aI20160
aI20352
aI20544
aI20736
aI20928
aI21120
aI21312
aI21504
aI21696
aI21888
aI22080
aI22272
aI22464
aI22656
aI22848
aI23040
aI23232
aI23424
aI23616
aI23808
aI24000
aI24192
aI24384
aI24576
aI24768
aI24960
aI25152
aI25344
aI25536
aI25728
aI25920
aI26112
aI26304
aI26496
aI26688
aI26880
aI27072
aI27264
aI27456
aI27648
aI27840
aI28032
aI28224
aI28416
aI28608
aI28800
aI28992
aI29184
aI29376
aI29568
aI29760
aI29952
aI30144
aI30336
aI30528
aI30720
aI30912
aI31104
aI31296
aI31488
aI31680
aI31872
aI32064
aI32256
aI32448
aI32640
aI32832
aI33024
aI33216
aI33408
aI33600
aI33792
aI33984
aI34176
aI34368
aI34560
aI34752
aI34944
aI35136
aI35328
aI35520
aI35712
aI35904
aI36096
aI36288
aI36480
aI36672
aI36864
aI37056
aI37248
aI37440
aI37632
aI37824
aI38016
aI38208
aI38400
aI38592
aI38784
aI38976
aI39168
aI39360
aI39552
aI39744
aI39936
aI40128
aI40320
aI40512
aI40704
aI40896
aI41088
aI41280
aI41472
aI41664
aI41856
aI42048
aI42240
aI42432
aI42624
aI42816
aI43008
aI43200
aI43392
aI43584
aI43776
aI43968
aI44160
aI44352
aI44544
aI44736
aI44928
aI45120
aI45312
aI45504
aI45696
aI45888
aI46080
aI46272
aI46464
aI46656
aI46848
aI47040
aI47232
aI47424
aI47616
aI47808
aI48000
aI48192
aI48384
aI48576
aI48768
aI48960
aI49152
aI49344
aI49536
aI49728
aI49920
aI50112
aI50304
aI50496
aI50688
aI50880
aI51072
aI51264
aI51456
aI51648
aI51840
aI52032
aI52224
aI52416
aI52608
aI52800
aI52992
aI53184
aI53376
aI53568
aI53760
aI53952
aI54144
aI54336
aI54528
aI54720
aI54912
aI55104
aI55296
aI55488
aI55680
aI55872
aI56064
aI56256
aI56448
aI56640
aI56832
aI57024
aI57216
aI57408
aI57600
aI57792
aI57984
aI58176
aI58368
aI58560
aI58752
aI58944
aI59136
aI59328
aI59520
aI59712
aI59904
aI60096
aI60288
aI60480
aI60672
aI60864
aI61056
aI61248
aI61440
aI61632
aI61824
aI62016
aI62208
aI62400
aI62592
aI62784
aI62976
aI63168
aI63360
aI63552
aI63744
aI63936
aI64128
aI64320
aI64512
aI64704
aI64896
aI65088
aI65280
aI65472
aI65664
aI65856
aI66048
aI66240
aI66432
aI66624
aI66816
aI67008
aI67200
aI67392
aI67584
aI67776
aI67968
aI68160
aI68352
aI68544
aI68736
aI68928
aI69120
aI69312
aI69504
aI69696
aI69888
aI70080
aI70272
aI70464
aI70656
aI70848
aI71040
aI71232
aI71424
aI71616
aI71808
aI72000
aI72192
aI72384
aI72576
aI72768
aI72960
aI73152
aI73344
aI73536
aI73728
aI73920
aI74112
aI74304
aI74496
aI74688
aI74880
aI75072
aI75264
aI75456
aI75648
aI75840
aI76032
aI76224
aI76416
aI76608
aI76800
aI76992
aI77184
aI77376
aI77568
aI77760
aI77952
aI78144
aI78336
aI78528
aI78720
aI78912
aI79104
aI79296
aI79488
aI79680
aI79872
aI80064
aI80256
aI80448
aI80640
aI80832
aI81024
aI81216
aI81408
aI81600
aI81792
aI81984
aI82176
aI82368
aI82560
aI82752
aI82944
aI83136
aI83328
aI83520
aI83712
aI83904
aI84096
aI84288
aI84480
aI84672
aI84864
aI85056
aI85248
aI85440
aI85632
aI85824
aI86016
aI86208
aI86400
aI86592
aI86784
aI86976
aI87168
aI87360
aI87552
aI87744
aI87936
aI88128
aI88320
aI88512
aI88704
aI88896
aI89088
aI89280
aI89472
aI89664
aI89856
aI90048
aI90240
aI90432
aI90624
aI90816
aI91008
aI91200
aI91392
aI91584
aI91776
aI91968
aI92160
aI92352
aI92544
aI92736
aI92928
aI93120
aI93312
aI93504
aI93696
aI93888
aI94080
aI94272
aI94464
aI94656
aI94848
aI95040
aI95232
aI95424
aI95616
aI95808
aI96000
aI96192
aI96384
aI96576
aI96768
aI96960
aI97152
aI97344
aI97536
aI97728
aI97920
aI98112
aI98304
aI98496
aI98688
aI98880
aI99072
aI99264
aI99456
aI99648
aI99840
aI100032
aI100224
aI100416
aI100608
aI100800
aI100992
aI101184
aI101376
aI101568
aI101760
aI101952
aI102144
aI102336
aI102528
aI102720
aI102912
aI103104
aI103296
aI103488
aI103680
aI103872
aI104064
aI104256
aI104448
aI104640
aI104832
aI105024
aI105216
aI105408
aI105600
aI105792
aI105984
aI106176
aI106368
aI106560
aI106752
aI106944
aI107136
aI107328
aI107520
aI107712
aI107904
aI108096
aI108288
aI108480
aI108672
aI108864
aI109056
aI109248
aI109440
aI109632
aI109824
aI110016
aI110208
aI110400
aI110592
aI110784
aI110976
aI111168
aI111360
aI111552
aI111744
aI111936
aI112128
aI112320
aI112512
aI112704
aI112896
aI113088
aI113280
aI113472
aI113664
aI113856
aI114048
aI114240
aI114432
aI114624
aI114816
aI115008
aI115200
aI115392
aI115584
aI115776
aI115968
aI116160
aI116352
aI116544
aI116736
aI116928
aI117120
aI117312
aI117504
aI117696
aI117888
aI118080
aI118272
aI118464
aI118656
aI118848
aI119040
aI119232
aI119424
aI119616
aI119808
aI120000
aI120192
aI120384
aI120576
aI120768
aI120960
aI121152
aI121344
aI121536
aI121728
aI121920
aI122112
aI122304
aI122496
aI122688
aI122880
aI123072
aI123264
aI123456
aI123648
aI123840
aI124032
aI124224
aI124416
aI124608
aI124800
aI124992
aI125184
aI125376
aI125568
aI125760
aI125952
aI126144
aI126336
aI126528
aI126720
aI126912
aI127104
aI127296
aI127488
aI127680
aI127872
aI128064
aI128256
aI128448
aI128640
aI128832
aI129024
aI129216
aI129408
aI129600
aI129792
aI129984
aI130176
aI130368
aI130560
aI130752
aI130944
aI131136
aI131328
aI131520
aI131712
aI131904
aI132096
aI132288
aI132480
aI132672
aI132864
aI133056
aI133248
aI133440
aI133632
aI133824
aI134016
aI134208
aI134400
aI134592
aI134784
aI134976
aI135168
aI135360
aI135552
aI135744
aI135936
aI136128
aI136320
aI136512
aI136704
aI136896
aI137088
aI137280
aI137472
aI137664
aI137856
aI138048
aI138240
aI138432
aI138624
aI138816
aI139008
aI139200
aI139392
aI139584
aI139776
aI139968
aI140160
aI140352
aI140544
aI140736
aI140928
aI141120
aI141312
aI141504
aI141696
aI141888
aI142080
aI142272
aI142464
aI142656
aI142848
aI143040
aI143232
aI143424
aI143616
aI143808
aI144000
aI144192
aI144384
aI144576
aI144768
aI144960
aI145152
aI145344
aI145536
aI145728
aI145920
aI146112
aI146304
aI146496
aI146688
aI146880
aI147072
aI147264
aI147456
aI147648
aI147840
aI148032
aI148224
aI148416
aI148608
aI148800
aI148992
aI149184
aI149376
aI149568
aI149760
aI149952
aI150144
aI150336
aI150528
aI150720
aI150912
aI151104
aI151296
aI151488
aI151680
aI151872
aI152064
aI152256
aI152448
aI152640
aI152832
aI153024
aI153216
aI153408
aI153600
aI153792
aI153984
aI154176
aI154368
aI154560
aI154752
aI154944
aI155136
aI155328
aI155520
aI155712
aI155904
aI156096
aI156288
aI156480
aI156672
aI156864
aI157056
aI157248
aI157440
aI157632
aI157824
aI158016
aI158208
aI158400
aI158592
aI158784
aI158976
aI159168
aI159360
aI159552
aI159744
aI159936
aI160128
aI160320
aI160512
aI160704
aI160896
aI161088
aI161280
aI161472
aI161664
aI161856
aI162048
aI162240
aI162432
aI162624
aI162816
aI163008
aI163200
aI163392
aI163584
aI163776
aI163968
aI164160
aI164352
aI164544
aI164736
aI164928
aI165120
aI165312
aI165504
aI165696
aI165888
aI166080
aI166272
aI166464
aI166656
aI166848
aI167040
aI167232
aI167424
aI167616
aI167808
aI168000
aI168192
aI168384
aI168576
aI168768
aI168960
aI169152
aI169344
aI169536
aI169728
aI169920
aI170112
aI170304
aI170496
aI170688
aI170880
aI171072
aI171264
aI171456
aI171648
aI171840
aI172032
aI172224
aI172416
aI172608
aI172800
aI172992
aI173184
aI173376
aI173568
aI173760
aI173952
aI174144
aI174336
aI174528
aI174720
aI174912
aI175104
aI175296
aI175488
aI175680
aI175872
aI176064
aI176256
aI176448
aI176640
aI176832
aI177024
aI177216
aI177408
aI177600
aI177792
aI177984
aI178176
aI178368
aI178560
aI178752
aI178944
aI179136
aI179328
aI179520
aI179712
aI179904
aI180096
aI180288
aI180480
aI180672
aI180864
aI181056
aI181248
aI181440
aI181632
aI181824
aI182016
aI182208
aI182400
aI182592
aI182784
aI182976
aI183168
aI183360
aI183552
aI183744
aI183936
aI184128
aI184320
aI184512
aI184704
aI184896
aI185088
aI185280
aI185472
aI185664
aI185856
aI186048
aI186240
aI186432
aI186624
aI186816
aI187008
aI187200
aI187392
aI187584
aI187776
aI187968
aI188160
aI188352
aI188544
aI188736
aI188928
aI189120
aI189312
aI189504
aI189696
aI189888
aI190080
aI190272
aI190464
aI190656
aI190848
aI191040
aI191232
aI191424
aI191616
aI191808
aI192000
aI192192
aI192384
aI192576
aI192768
aI192960
aI193152
aI193344
aI193536
aI193728
aI193920
aI194112
aI194304
aI194496
aI194688
aI194880
aI195072
aI195264
aI195456
aI195648
aI195840
aI196032
aI196224
aI196416
aI196608
aI196800
aI196992
aI197184
aI197376
aI197568
aI197760
aI197952
aI198144
aI198336
aI198528
aI198720
aI198912
aI199104
aI199296
aI199488
aI199680
aI199872
aI200064
asS'best_f'
p3
(lp4
cnumpy.core.multiarray
scalar
p5
(cnumpy
dtype
p6
(S'f8'
p7
I0
I1
tp8
Rp9
(I3
S'<'
p10
NNNI-1
I-1
I0
tp11
bS'\xd4\x87\xa1\x18\x92lr\xc0'
p12
tp13
Rp14
ag14
ag5
(g9
S'\xaa!N\x19\xd6wt\xc0'
p15
tp16
Rp17
ag5
(g9
S'\x07\x05\xe0\xd5W\x8bt\xc0'
p18
tp19
Rp20
ag5
(g9
S'I\xb72O\x19Uu\xc0'
p21
tp22
Rp23
ag5
(g9
S'\xf0\xd3\n\xc9\x8c\x19v\xc0'
p24
tp25
Rp26
ag5
(g9
S'\x1e\xa9\x97\r\x88\x1dx\xc0'
p27
tp28
Rp29
ag29
ag29
ag5
(g9
S'+b\x95u\x06\xfbx\xc0'
p30
tp31
Rp32
ag32
ag5
(g9
S'\x13\xc6b\x18\x82(y\xc0'
p33
tp34
Rp35
ag35
ag35
ag5
(g9
S'\xa6/[df2y\xc0'
p36
tp37
Rp38
ag38
ag5
(g9
S'"/\x03\xc6\xb29y\xc0'
p39
tp40
Rp41
ag5
(g9
S'=\x0b=k\x82=y\xc0'
p42
tp43
Rp44
ag5
(g9
S'\x98s\x9fihWy\xc0'
p45
tp46
Rp47
ag5
(g9
S'4\x97\xcb\x11\x1a]y\xc0'
p48
tp49
Rp50
ag5
(g9
S'\x06\x089n\x8b\x7fy\xc0'
p51
tp52
Rp53
ag53
ag53
ag53
ag53
ag53
ag53
ag53
ag53
ag53
ag53
ag53
ag53
ag53
ag53
ag53
ag53
ag53
ag53
ag53
ag53
ag53
ag53
ag53
ag53
ag53
ag53
ag53
ag53
ag53
ag53
ag53
ag53
ag53
ag53
ag53
ag53
ag53
ag53
ag53
ag53
ag53
ag53
ag53
ag53
ag53
ag53
ag53
ag53
ag53
ag53
ag53
ag53
ag53
ag53
ag53
ag53
ag53
ag53
ag53
ag53
ag53
ag53
ag53
ag53
ag53
ag53
ag53
ag53
ag53
ag53
ag53
ag53
ag53
ag53
ag53
ag53
ag53
ag53
ag53
ag53
ag53
ag53
ag53
ag53
ag53
ag53
ag53
ag53
ag53
ag53
ag53
ag53
ag53
ag53
ag53
ag53
ag53
ag53
ag53
ag53
ag53
ag53
ag53
ag53
ag53
ag53
ag53
ag53
ag53
ag53
ag53
ag53
ag53
ag53
ag53
ag53
ag53
ag53
ag53
ag53
ag53
ag53
ag53
ag53
ag53
ag53
ag53
ag53
ag53
ag53
ag53
ag53
ag53
ag53
ag53
ag53
ag53
ag53
ag53
ag53
ag53
ag53
ag53
ag53
ag53
ag53
ag53
ag53
ag53
ag53
ag53
ag53
ag53
ag53
ag53
ag53
ag53
ag53
ag53
ag53
ag53
ag53
ag53
ag53
ag53
ag53
ag53
ag53
ag53
ag53
ag53
ag53
ag53
ag53
ag53
ag53
ag53
ag53
ag53
ag53
ag53
ag53
ag53
ag53
ag53
ag53
ag53
ag53
ag53
ag53
ag53
ag53
ag53
ag53
ag53
ag53
ag53
ag53
ag53
ag53
ag53
ag53
ag53
ag53
ag53
ag53
ag53
ag53
ag53
ag53
ag53
ag53
ag53
ag53
ag53
ag53
ag53
ag53
ag53
ag53
ag53
ag53
ag53
ag53
ag53
ag53
ag53
ag53
ag53
ag53
ag53
ag53
ag53
ag53
ag53
ag53
ag53
ag53
ag53
ag53
ag53
ag53
ag53
ag53
ag53
ag53
ag53
ag53
ag53
ag53
ag53
ag53
ag53
ag53
ag53
ag53
ag53
ag53
ag53
ag53
ag53
ag53
ag53
ag53
ag53
ag53
ag53
ag53
ag53
ag53
ag53
ag53
ag53
ag53
ag53
ag53
ag53
ag53
ag53
ag53
ag53
ag53
ag53
ag53
ag53
ag53
ag53
ag53
ag53
ag53
ag53
ag53
ag53
ag53
ag53
ag53
ag53
ag53
ag53
ag53
ag53
ag53
ag53
ag53
ag53
ag53
ag53
ag53
ag53
ag53
ag53
ag53
ag53
ag53
ag53
ag53
ag53
ag53
ag53
ag53
ag53
ag53
ag53
ag53
ag53
ag53
ag53
ag53
ag53
ag53
ag53
ag53
ag53
ag53
ag53
ag53
ag53
ag53
ag53
ag53
ag53
ag53
ag53
ag53
ag53
ag53
ag53
ag53
ag53
ag53
ag53
ag53
ag53
ag53
ag53
ag53
ag53
ag53
ag53
ag53
ag53
ag53
ag53
ag53
ag53
ag53
ag53
ag53
ag53
ag53
ag53
ag53
ag53
ag53
ag53
ag53
ag53
ag53
ag53
ag53
ag53
ag53
ag53
ag53
ag53
ag53
ag53
ag53
ag53
ag53
ag53
ag53
ag53
ag53
ag53
ag53
ag53
ag53
ag53
ag53
ag53
ag53
ag53
ag53
ag53
ag53
ag53
ag53
ag53
ag53
ag53
ag53
ag53
ag53
ag53
ag53
ag53
ag53
ag53
ag53
ag53
ag53
ag53
ag53
ag53
ag53
ag53
ag53
ag53
ag53
ag53
ag53
ag53
ag53
ag53
ag53
ag53
ag53
ag53
ag53
ag53
ag53
ag53
ag53
ag53
ag53
ag53
ag53
ag53
ag53
ag53
ag53
ag53
ag53
ag53
ag53
ag53
ag53
ag53
ag53
ag53
ag53
ag53
ag53
ag53
ag53
ag53
ag53
ag53
ag53
ag53
ag53
ag53
ag53
ag53
ag53
ag53
ag53
ag53
ag53
ag53
ag53
ag53
ag53
ag53
ag53
ag53
ag53
ag53
ag53
ag53
ag53
ag53
ag53
ag53
ag53
ag53
ag53
ag53
ag53
ag53
ag53
ag53
ag53
ag53
ag53
ag53
ag53
ag53
ag53
ag53
ag53
ag53
ag53
ag53
ag53
ag53
ag53
ag53
ag53
ag53
ag53
ag53
ag53
ag53
ag53
ag53
ag53
ag53
ag53
ag53
ag53
ag53
ag53
ag53
ag53
ag53
ag53
ag53
ag53
ag53
ag53
ag53
ag53
ag53
ag53
ag53
ag53
ag53
ag53
ag53
ag53
ag53
ag53
ag53
ag53
ag53
ag53
ag53
ag53
ag53
ag53
ag53
ag53
ag53
ag53
ag53
ag53
ag53
ag53
ag53
ag53
ag53
ag53
ag53
ag53
ag53
ag53
ag53
ag53
ag53
ag53
ag53
ag53
ag53
ag53
ag53
ag53
ag53
ag53
ag53
ag53
ag53
ag53
ag53
ag53
ag53
ag53
ag53
ag53
ag53
ag53
ag53
ag53
ag53
ag53
ag53
ag53
ag53
ag53
ag53
ag53
ag53
ag53
ag53
ag53
ag53
ag53
ag53
ag53
ag53
ag53
ag53
ag53
ag53
ag53
ag53
ag53
ag53
ag53
ag53
ag53
ag53
ag53
ag53
ag53
ag53
ag53
ag53
ag53
ag53
ag53
ag53
ag53
ag53
ag53
ag53
ag53
ag53
ag53
ag53
ag53
ag53
ag53
ag53
ag53
ag53
ag53
ag53
ag53
ag53
ag53
ag53
ag53
ag53
ag53
ag53
ag53
ag53
ag53
ag53
ag53
ag53
ag53
ag53
ag53
ag53
ag53
ag53
ag53
ag53
ag53
ag53
ag53
ag53
ag53
ag53
ag53
ag53
ag53
ag53
ag53
ag53
ag53
ag53
ag53
ag53
ag53
ag53
ag53
ag53
ag53
ag53
ag53
ag53
ag53
ag53
ag53
ag53
ag53
ag53
ag53
ag53
ag53
ag53
ag53
ag53
ag53
ag53
ag53
ag53
ag53
ag53
ag53
ag53
ag53
ag53
ag53
ag53
ag53
ag53
ag53
ag53
ag53
ag53
ag53
ag53
ag53
ag53
ag53
ag53
ag53
ag53
ag53
ag53
ag53
ag53
ag53
ag53
ag53
ag53
ag53
ag53
ag53
ag53
ag53
ag53
ag53
ag53
ag53
ag53
ag53
ag53
ag53
ag53
ag53
ag5
(g9
S'jaN\xdb\xbe\x80y\xc0'
p54
tp55
Rp56
ag56
ag56
ag56
ag56
ag56
ag56
ag56
ag56
ag56
ag56
ag56
ag56
ag56
ag56
ag56
ag56
ag56
ag56
ag56
ag56
ag56
ag56
ag56
ag56
ag56
ag56
ag56
ag56
ag56
ag56
ag56
ag56
ag56
ag56
ag56
ag56
ag56
ag56
ag56
ag56
ag56
ag56
ag56
ag56
ag56
ag56
ag56
ag56
ag56
ag56
ag56
ag56
ag56
ag56
ag56
ag56
ag56
ag56
ag56
ag56
ag56
ag56
ag56
ag56
ag56
ag56
ag56
ag56
ag56
ag56
ag56
ag56
ag56
ag56
ag56
ag56
ag56
ag56
ag5
(g9
S'\x94|l\x19\x95\x87y\xc0'
p57
tp58
Rp59
ag59
ag59
ag59
ag59
ag59
ag59
ag59
ag59
ag59
ag59
ag59
ag59
ag59
ag59
ag59
ag59
ag59
ag59
ag59
ag59
ag59
ag59
ag59
ag59
ag59
ag59
ag59
ag59
ag59
ag59
ag59
ag59
ag59
ag59
ag59
ag59
ag59
ag59
ag59
ag59
ag59
ag59
ag59
ag59
ag59
ag59
ag59
ag59
ag59
ag59
ag59
ag59
ag59
ag59
ag59
ag59
ag59
ag59
ag59
ag59
ag59
ag59
ag59
ag59
ag59
ag59
ag59
ag59
ag59
ag59
ag59
ag59
ag59
ag59
ag59
ag59
ag59
ag59
ag59
ag59
ag59
ag59
ag59
ag59
ag59
ag59
ag59
ag59
ag59
ag59
ag59
ag59
ag59
ag59
ag59
ag59
ag59
ag59
ag59
ag59
ag59
ag59
ag59
ag59
ag59
ag59
ag59
ag59
ag59
ag59
ag59
ag59
ag59
ag59
ag59
ag59
ag59
ag59
ag59
ag59
ag59
ag59
ag59
ag59
ag59
ag59
ag59
ag59
ag59
ag59
ag59
ag59
ag59
ag59
ag59
ag59
ag59
ag59
ag59
ag59
ag59
ag59
ag59
ag59
ag59
ag59
ag59
ag59
ag59
ag59
ag59
ag59
ag59
ag59
ag59
ag59
ag59
ag59
ag59
ag59
ag59
ag59
ag59
ag59
ag59
ag59
ag59
ag59
ag59
ag59
ag59
ag59
ag59
ag59
ag59
asS'best_P'
p60
(lp61
(iptreeopt.tree
PTree
p62
(dp63
S'root'
p64
ccopy_reg
_reconstructor
p65
(cptreeopt.tree
Feature
p66
c__builtin__
object
p67
Ntp68
Rp69
(dp70
S'index'
p71
I1
sS'name'
p72
S'Day'
p73
sS'l'
p74
g65
(cptreeopt.tree
Action
p75
g67
Ntp76
Rp77
(dp78
S'r'
p79
NsS'is_feature'
p80
I00
sS'value'
p81
F0.3684909610688152
sg74
Nsbsg79
g65
(g66
g67
Ntp82
Rp83
(dp84
g71
I1
sg72
g73
sg74
g65
(g66
g67
Ntp85
Rp86
(dp87
g71
I2
sg72
S'Inflow'
p88
sg74
g65
(g75
g67
Ntp89
Rp90
(dp91
g79
Nsg80
I00
sg81
F0.033771567181470674
sg74
Nsbsg79
g65
(g66
g67
Ntp92
Rp93
(dp94
g71
I2
sg72
g88
sg74
g65
(g75
g67
Ntp95
Rp96
(dp97
g79
Nsg80
I00
sg81
F0.3884041171691053
sg74
Nsbsg79
g65
(g75
g67
Ntp98
Rp99
(dp100
g79
Nsg80
I00
sg81
F0.5881514604352993
sg74
NsbsS'threshold'
p101
F15.004921996653387
sg80
I01
sbsg101
F3.784359468247144
sg80
I01
sbsg79
g65
(g66
g67
Ntp102
Rp103
(dp104
g71
I0
sg72
S'Storage'
p105
sg74
g65
(g75
g67
Ntp106
Rp107
(dp108
g79
Nsg80
I00
sg81
F0.3032528204417744
sg74
Nsbsg79
g65
(g66
g67
Ntp109
Rp110
(dp111
g71
I2
sg72
g88
sg74
g65
(g75
g67
Ntp112
Rp113
(dp114
g79
Nsg80
I00
sg81
F0.7955453873987436
sg74
Nsbsg79
g65
(g66
g67
Ntp115
Rp116
(dp117
g71
I0
sg72
g105
sg74
g65
(g66
g67
Ntp118
Rp119
(dp120
g71
I2
sg72
g88
sg74
g65
(g75
g67
Ntp121
Rp122
(dp123
g79
Nsg80
I00
sg81
F0.15438959971555433
sg74
Nsbsg79
g65
(g75
g67
Ntp124
Rp125
(dp126
g79
Nsg80
I00
sg81
F0.5524403493765467
sg74
Nsbsg101
F13.011665614490568
sg80
I01
sbsg79
g65
(g75
g67
Ntp127
Rp128
(dp129
g79
Nsg80
I00
sg81
F0.22715659197513693
sg74
Nsbsg101
F187.31169627458772
sg80
I01
sbsg101
F12.746118782297579
sg80
I01
sbsg101
F54.256651606223414
sg80
I01
sbsg101
F360.5440537106776
sg80
I01
sbsg101
F230.62277826116858
sg80
I01
sbsS'L'
p130
(lp131
g69
ag77
ag83
ag86
ag90
ag93
ag96
ag99
ag103
ag107
ag110
ag113
ag116
ag119
ag122
ag125
ag128
asS'N'
p132
I17
sbag62
a(iptreeopt.tree
PTree
p133
(dp134
g64
g65
(g66
g67
Ntp135
Rp136
(dp137
g71
I1
sg79
g65
(g66
g67
Ntp138
Rp139
(dp140
g71
I1
sg79
g65
(g66
g67
Ntp141
Rp142
(dp143
g71
I0
sg79
g65
(g66
g67
Ntp144
Rp145
(dp146
g71
I2
sg79
g65
(g75
g67
Ntp147
Rp148
(dp149
g79
Nsg80
I00
sg81
g5
(g9
S'\x03\xb9v]\xf2\xef\xe1?'
p150
tp151
Rp152
sg74
Nsbsg72
g88
sg101
g5
(g9
S'\xe0>U\x1bQ\xf4\x12@'
p153
tp154
Rp155
sg74
g65
(g75
g67
Ntp156
Rp157
(dp158
g79
Nsg80
I00
sg81
g5
(g9
S'\xe8\x1d|\xf0.\x19\xbd?'
p159
tp160
Rp161
sg74
Nsbsg80
I01
sbsg72
g105
sg101
g5
(g9
S'\xb9\x9c\x04\x95\xfa\xf1!@'
p162
tp163
Rp164
sg74
g65
(g75
g67
Ntp165
Rp166
(dp167
g79
Nsg80
I00
sg81
g5
(g9
S"r\x00'\x82C-\xc7?"
p168
tp169
Rp170
sg74
Nsbsg80
I01
sbsg72
g73
sg101
g5
(g9
S'\x00\x00\x00\x00\x00\xd0v@'
p171
tp172
Rp173
sg74
g65
(g66
g67
Ntp174
Rp175
(dp176
g71
I2
sg79
g65
(g66
g67
Ntp177
Rp178
(dp179
g71
I2
sg79
g65
(g75
g67
Ntp180
Rp181
(dp182
g79
Nsg80
I00
sg81
g5
(g9
S'\xa4!S\\:\xbc\xe7?'
p183
tp184
Rp185
sg74
Nsbsg72
g88
sg101
g5
(g9
S"L\x83:\xde\xe2&'@"
p186
tp187
Rp188
sg74
g65
(g75
g67
Ntp189
Rp190
(dp191
g79
Nsg80
I00
sg81
g5
(g9
S"L\xeaX\xff'\xa3\xd8?"
p192
tp193
Rp194
sg74
Nsbsg80
I01
sbsg72
g88
sg101
g5
(g9
S'\x00\x00\x00\x00\x00\x00\x08@'
p195
tp196
Rp197
sg74
g65
(g75
g67
Ntp198
Rp199
(dp200
g79
Nsg80
I00
sg81
g5
(g9
S'\xf2\xbfA\x0e\x0f\xdfw?'
p201
tp202
Rp203
sg74
Nsbsg80
I01
sbsg80
I01
sbsg72
g73
sg101
g5
(g9
S'\xc3@z)%^g@'
p204
tp205
Rp206
sg74
g65
(g75
g67
Ntp207
Rp208
(dp209
g79
Nsg80
I00
sg81
g5
(g9
S'\xa7\xdc\x0b\x1b\xd5!\xe1?'
p210
tp211
Rp212
sg74
Nsbsg80
I01
sbsg130
(lp213
g136
ag208
ag139
ag175
ag199
ag178
ag190
ag181
ag142
ag166
ag145
ag157
ag148
asg132
I13
sba(iptreeopt.tree
PTree
p214
(dp215
g64
g65
(g66
g67
Ntp216
Rp217
(dp218
g71
I1
sg79
g65
(g66
g67
Ntp219
Rp220
(dp221
g71
I1
sg79
g65
(g75
g67
Ntp222
Rp223
(dp224
g79
Nsg80
I00
sg81
g5
(g9
S'\x00\x00\x00\x00\x00\x00\x00\x00'
p225
tp226
Rp227
sg74
Nsbsg72
g73
sg101
g5
(g9
S'#\x0f~\x11\xb3\xe1i@'
p228
tp229
Rp230
sg74
g65
(g75
g67
Ntp231
Rp232
(dp233
g79
Nsg80
I00
sg81
g5
(g9
S'T\xce`\xb9N\xac\xe0?'
p234
tp235
Rp236
sg74
Nsbsg80
I01
sbsg72
g73
sg101
g5
(g9
S'\x85\xba\x15\xfd[\xe7\x1c@'
p237
tp238
Rp239
sg74
g65
(g66
g67
Ntp240
Rp241
(dp242
g71
I0
sg79
g65
(g66
g67
Ntp243
Rp244
(dp245
g71
I0
sg79
g65
(g75
g67
Ntp246
Rp247
(dp248
g79
Nsg80
I00
sg81
g5
(g9
S'\x9e\xa3[\x12\xd1\xad\xe9?'
p249
tp250
Rp251
sg74
Nsbsg72
g105
sg101
g5
(g9
S"\x12\x18f\xd7'\xe5m@"
p252
tp253
Rp254
sg74
g65
(g75
g67
Ntp255
Rp256
(dp257
g79
Nsg80
I00
sg81
g5
(g9
S'\x19\xec\xa7iQ\x02\xe9?'
p258
tp259
Rp260
sg74
Nsbsg80
I01
sbsg72
g105
sg101
g5
(g9
S'\xb3\xa1q\xd8?\x1eU@'
p261
tp262
Rp263
sg74
g65
(g75
g67
Ntp264
Rp265
(dp266
g79
Nsg80
I00
sg81
g5
(g9
S'\x84\x96<\x93\x80[\xea?'
p267
tp268
Rp269
sg74
Nsbsg80
I01
sbsg80
I01
sbsg130
(lp270
g217
ag241
ag265
ag244
ag256
ag247
ag220
ag232
ag223
asg132
I9
sba(iptreeopt.tree
PTree
p271
(dp272
g64
g65
(g66
g67
Ntp273
Rp274
(dp275
g71
I1
sg79
g65
(g66
g67
Ntp276
Rp277
(dp278
g71
I0
sg79
g65
(g75
g67
Ntp279
Rp280
(dp281
g79
Nsg80
I00
sg81
g5
(g9
S'\x00\x00\x00\x00\x00\x00\x00\x00'
p282
tp283
Rp284
sg74
Nsbsg72
g105
sg101
g5
(g9
S'\x04\xbb\xde=3\xd8<@'
p285
tp286
Rp287
sg74
g65
(g75
g67
Ntp288
Rp289
(dp290
g79
Nsg80
I00
sg81
g5
(g9
S'&\x8f8\xfc\x8c\xae\xd6?'
p291
tp292
Rp293
sg74
Nsbsg80
I01
sbsg72
g73
sg101
g5
(g9
S':\x99\xedT\xe6\rq@'
p294
tp295
Rp296
sg74
g65
(g66
g67
Ntp297
Rp298
(dp299
g71
I1
sg79
g65
(g75
g67
Ntp300
Rp301
(dp302
g79
Nsg80
I00
sg81
g5
(g9
S'\x00\x00\x00\x00\x00\x00\x00\x00'
p303
tp304
Rp305
sg74
Nsbsg72
g73
sg101
g5
(g9
S'\xc7\x04zs\x81}e@'
p306
tp307
Rp308
sg74
g65
(g75
g67
Ntp309
Rp310
(dp311
g79
Nsg80
I00
sg81
g5
(g9
S'>\x96\x08\xd7\xcf\x14\xec?'
p312
tp313
Rp314
sg74
Nsbsg80
I01
sbsg80
I01
sbsg130
(lp315
g274
ag298
ag310
ag301
ag277
ag289
ag280
asg132
I7
sba(iptreeopt.tree
PTree
p316
(dp317
g64
g65
(g66
g67
Ntp318
Rp319
(dp320
g71
I1
sg79
g65
(g66
g67
Ntp321
Rp322
(dp323
g71
I0
sg79
g65
(g75
g67
Ntp324
Rp325
(dp326
g79
Nsg80
I00
sg81
g5
(g9
S'\x00\x00\x00\x00\x00\x00\x00\x00'
p327
tp328
Rp329
sg74
Nsbsg72
g105
sg101
g5
(g9
S'\xfd+^\xba\xc3\xe2,@'
p330
tp331
Rp332
sg74
g65
(g75
g67
Ntp333
Rp334
(dp335
g79
Nsg80
I00
sg81
g5
(g9
S'\xa9H\xc4\xf1\xf06\xdd?'
p336
tp337
Rp338
sg74
Nsbsg80
I01
sbsg72
g73
sg101
g5
(g9
S'}s\xa9\xb8!wg@'
p339
tp340
Rp341
sg74
g65
(g66
g67
Ntp342
Rp343
(dp344
g71
I0
sg79
g65
(g66
g67
Ntp345
Rp346
(dp347
g71
I0
sg79
g65
(g75
g67
Ntp348
Rp349
(dp350
g79
Nsg80
I00
sg81
g5
(g9
S'\x00\x00\x00\x00\x00\x00\xf0?'
p351
tp352
Rp353
sg74
Nsbsg72
g105
sg101
g5
(g9
S'a\x03\xa8\x07\x11\xc8l@'
p354
tp355
Rp356
sg74
g65
(g66
g67
Ntp357
Rp358
(dp359
g71
I2
sg79
g65
(g75
g67
Ntp360
Rp361
(dp362
g79
Nsg80
I00
sg81
g5
(g9
S'\xc7[\xe0\xaf\xe1!\xe1?'
p363
tp364
Rp365
sg74
Nsbsg72
g88
sg101
g5
(g9
S'\x00\x00\x00\x00\x00\x000@'
p366
tp367
Rp368
sg74
g65
(g75
g67
Ntp369
Rp370
(dp371
g79
Nsg80
I00
sg81
g5
(g9
S'\x1a\xdf\t\xdaw\xb3\xdf?'
p372
tp373
Rp374
sg74
Nsbsg80
I01
sbsg80
I01
sbsg72
g105
sg101
g5
(g9
S'\xafp\xf5\xd2\xba;"@'
p375
tp376
Rp377
sg74
g65
(g75
g67
Ntp378
Rp379
(dp380
g79
Nsg80
I00
sg81
g5
(g9
S'p\xba\xf5\xeaDD\xe6?'
p381
tp382
Rp383
sg74
Nsbsg80
I01
sbsg80
I01
sbsg130
(lp384
g319
ag343
ag379
ag346
ag358
ag370
ag361
ag349
ag322
ag334
ag325
asg132
I11
sba(iptreeopt.tree
PTree
p385
(dp386
g64
g65
(g66
g67
Ntp387
Rp388
(dp389
g71
I1
sg79
g65
(g66
g67
Ntp390
Rp391
(dp392
g71
I0
sg79
g65
(g75
g67
Ntp393
Rp394
(dp395
g79
Nsg80
I00
sg81
g5
(g9
S'\x00\x00\x00\x00\x00\x00\x00\x00'
p396
tp397
Rp398
sg74
Nsbsg72
g105
sg101
g5
(g9
S'\x00\x00\x00\x00\x00\x00\x00\x00'
p399
tp400
Rp401
sg74
g65
(g75
g67
Ntp402
Rp403
(dp404
g79
Nsg80
I00
sg81
g5
(g9
S'\xbd\x8e\x1a\xa2wz\xe9?'
p405
tp406
Rp407
sg74
Nsbsg80
I01
sbsg72
g73
sg101
g5
(g9
S'\x85}\xdffYqp@'
p408
tp409
Rp410
sg74
g65
(g66
g67
Ntp411
Rp412
(dp413
g71
I0
sg79
g65
(g66
g67
Ntp414
Rp415
(dp416
g71
I0
sg79
g65
(g75
g67
Ntp417
Rp418
(dp419
g79
Nsg80
I00
sg81
g5
(g9
S'\x00\x00\x00\x00\x00\x00\xf0?'
p420
tp421
Rp422
sg74
Nsbsg72
g105
sg101
g5
(g9
S'\x00\x00\x00\x00\x00\xe0p@'
p423
tp424
Rp425
sg74
g65
(g66
g67
Ntp426
Rp427
(dp428
g71
I1
sg79
g65
(g75
g67
Ntp429
Rp430
(dp431
g79
Nsg80
I00
sg81
g5
(g9
S'\x00\x00\x00\x00\x00\x00\x00\x00'
p432
tp433
Rp434
sg74
Nsbsg72
g73
sg101
g5
(g9
S'NEU\r\xb8\xfbb@'
p435
tp436
Rp437
sg74
g65
(g66
g67
Ntp438
Rp439
(dp440
g71
I0
sg79
g65
(g66
g67
Ntp441
Rp442
(dp443
g71
I1
sg79
g65
(g75
g67
Ntp444
Rp445
(dp446
g79
Nsg80
I00
sg81
g5
(g9
S'\xbd`\x08\xd0\xa4\xfc\xd1?'
p447
tp448
Rp449
sg74
Nsbsg72
g73
sg101
g5
(g9
S'/\xae\x99F\xe2\x19Y@'
p450
tp451
Rp452
sg74
g65
(g75
g67
Ntp453
Rp454
(dp455
g79
Nsg80
I00
sg81
g5
(g9
S'(\x122\x13\x0c\x02\xeb?'
p456
tp457
Rp458
sg74
Nsbsg80
I01
sbsg72
g105
sg101
g5
(g9
S'\xec\xd7\xb6\xe5b,X@'
p459
tp460
Rp461
sg74
g65
(g75
g67
Ntp462
Rp463
(dp464
g79
Nsg80
I00
sg81
g5
(g9
S'E\x06\xe12\xcf\xef\xd8?'
p465
tp466
Rp467
sg74
Nsbsg80
I01
sbsg80
I01
sbsg80
I01
sbsg72
g105
sg101
g5
(g9
S'\x00\x00\x00\x00\x00\x00\x00\x00'
p468
tp469
Rp470
sg74
g65
(g75
g67
Ntp471
Rp472
(dp473
g79
Nsg80
I00
sg81
g5
(g9
S"'\xa0\xec\x96\xf6c\xca?"
p474
tp475
Rp476
sg74
Nsbsg80
I01
sbsg80
I01
sbsg130
(lp477
g388
ag412
ag472
ag415
ag427
ag439
ag463
ag442
ag454
ag445
ag430
ag418
ag391
ag403
ag394
asg132
I15
sbag385
ag385
a(iptreeopt.tree
PTree
p478
(dp479
g64
g65
(g66
g67
Ntp480
Rp481
(dp482
g71
I1
sg79
g65
(g66
g67
Ntp483
Rp484
(dp485
g71
I0
sg79
g65
(g75
g67
Ntp486
Rp487
(dp488
g79
Nsg80
I00
sg81
g5
(g9
S'\x00\x00\x00\x00\x00\x00\x00\x00'
p489
tp490
Rp491
sg74
Nsbsg72
g105
sg101
g5
(g9
S'\x00\x00\x00\x00\x00\x00\x00\x00'
p492
tp493
Rp494
sg74
g65
(g75
g67
Ntp495
Rp496
(dp497
g79
Nsg80
I00
sg81
g5
(g9
S'!\x92L\xe0x*\xec?'
p498
tp499
Rp500
sg74
Nsbsg80
I01
sbsg72
g73
sg101
g5
(g9
S'\xb9K\x9a\xf5\x1b\x92s@'
p501
tp502
Rp503
sg74
g65
(g66
g67
Ntp504
Rp505
(dp506
g71
I0
sg79
g65
(g66
g67
Ntp507
Rp508
(dp509
g71
I0
sg79
g65
(g75
g67
Ntp510
Rp511
(dp512
g79
Nsg80
I00
sg81
g5
(g9
S'\xc6D\xbf\x84\xea\x02\xed?'
p513
tp514
Rp515
sg74
Nsbsg72
g105
sg101
g5
(g9
S'\x00\x00\x00\x00\x00\xe0p@'
p516
tp517
Rp518
sg74
g65
(g66
g67
Ntp519
Rp520
(dp521
g71
I1
sg79
g65
(g75
g67
Ntp522
Rp523
(dp524
g79
Nsg80
I00
sg81
g5
(g9
S'\x00\x00\x00\x00\x00\x00\x00\x00'
p525
tp526
Rp527
sg74
Nsbsg72
g73
sg101
g5
(g9
S'NEU\r\xb8\xfbb@'
p528
tp529
Rp530
sg74
g65
(g66
g67
Ntp531
Rp532
(dp533
g71
I0
sg79
g65
(g66
g67
Ntp534
Rp535
(dp536
g71
I1
sg79
g65
(g75
g67
Ntp537
Rp538
(dp539
g79
Nsg80
I00
sg81
g5
(g9
S'\x00\x00\x00\x00\x00\x00\x00\x00'
p540
tp541
Rp542
sg74
Nsbsg72
g73
sg101
g5
(g9
S'\x9c\xa6\xe8\xd8\xe6\xcb`@'
p543
tp544
Rp545
sg74
g65
(g75
g67
Ntp546
Rp547
(dp548
g79
Nsg80
I00
sg81
g5
(g9
S'\xa9*\xd3\x15\xe32\xe9?'
p549
tp550
Rp551
sg74
Nsbsg80
I01
sbsg72
g105
sg101
g5
(g9
S'\xb3\xb5\xcb\xb9\xd2PU@'
p552
tp553
Rp554
sg74
g65
(g75
g67
Ntp555
Rp556
(dp557
g79
Nsg80
I00
sg81
g5
(g9
S'L\xf9\xa0\xb5\x1c\xc1\xd5?'
p558
tp559
Rp560
sg74
Nsbsg80
I01
sbsg80
I01
sbsg80
I01
sbsg72
g105
sg101
g5
(g9
S'\x00\x00\x00\x00\x00\x00\x00\x00'
p561
tp562
Rp563
sg74
g65
(g75
g67
Ntp564
Rp565
(dp566
g79
Nsg80
I00
sg81
g5
(g9
S'b5S\xba`|\xce?'
p567
tp568
Rp569
sg74
Nsbsg80
I01
sbsg80
I01
sbsg130
(lp570
g481
ag505
ag565
ag508
ag520
ag532
ag556
ag535
ag547
ag538
ag523
ag511
ag484
ag496
ag487
asg132
I15
sbag478
a(iptreeopt.tree
PTree
p571
(dp572
g64
g65
(g66
g67
Ntp573
Rp574
(dp575
g71
I0
sg79
g65
(g66
g67
Ntp576
Rp577
(dp578
g71
I0
sg79
g65
(g75
g67
Ntp579
Rp580
(dp581
g79
Nsg80
I00
sg81
g5
(g9
S'B\xf5c\xc9S\xf3\xed?'
p582
tp583
Rp584
sg74
Nsbsg72
g105
sg101
g5
(g9
S'\x00\x8e.9\x8f\x91p@'
p585
tp586
Rp587
sg74
g65
(g66
g67
Ntp588
Rp589
(dp590
g71
I1
sg79
g65
(g75
g67
Ntp591
Rp592
(dp593
g79
Nsg80
I00
sg81
g5
(g9
S'\x00\x00\x00\x00\x00\x00\x00\x00'
p594
tp595
Rp596
sg74
Nsbsg72
g73
sg101
g5
(g9
S'N\xf8=\x9e\xa28Z@'
p597
tp598
Rp599
sg74
g65
(g75
g67
Ntp600
Rp601
(dp602
g79
Nsg80
I00
sg81
g5
(g9
S'\x8eY\x08:\xff\xc9\xe9?'
p603
tp604
Rp605
sg74
Nsbsg80
I01
sbsg80
I01
sbsg72
g105
sg101
g5
(g9
S'\xab\xfeP_\xf2\xe3X@'
p606
tp607
Rp608
sg74
g65
(g75
g67
Ntp609
Rp610
(dp611
g79
Nsg80
I00
sg81
g5
(g9
S',Q:\rb \xc2?'
p612
tp613
Rp614
sg74
Nsbsg80
I01
sbsg130
(lp615
g574
ag610
ag577
ag589
ag601
ag592
ag580
asg132
I7
sbag571
ag571
a(iptreeopt.tree
PTree
p616
(dp617
g64
g65
(g66
g67
Ntp618
Rp619
(dp620
g71
I0
sg79
g65
(g66
g67
Ntp621
Rp622
(dp623
g71
I0
sg79
g65
(g75
g67
Ntp624
Rp625
(dp626
g79
Nsg80
I00
sg81
g5
(g9
S'\x00\x00\x00\x00\x00\x00\xf0?'
p627
tp628
Rp629
sg74
Nsbsg72
g105
sg101
g5
(g9
S'\x00\x00\x00\x00\x00\xe0p@'
p630
tp631
Rp632
sg74
g65
(g66
g67
Ntp633
Rp634
(dp635
g71
I1
sg79
g65
(g75
g67
Ntp636
Rp637
(dp638
g79
Nsg80
I00
sg81
g5
(g9
S'\x12\xb4\xbb\xce\xc2!\xa6?'
p639
tp640
Rp641
sg74
Nsbsg72
g73
sg101
g5
(g9
S'N\xf8=\x9e\xa28Z@'
p642
tp643
Rp644
sg74
g65
(g75
g67
Ntp645
Rp646
(dp647
g79
Nsg80
I00
sg81
g5
(g9
S'\x8eY\x08:\xff\xc9\xe9?'
p648
tp649
Rp650
sg74
Nsbsg80
I01
sbsg80
I01
sbsg72
g105
sg101
g5
(g9
S'r\x8d\x04c\xef\xfcY@'
p651
tp652
Rp653
sg74
g65
(g75
g67
Ntp654
Rp655
(dp656
g79
Nsg80
I00
sg81
g5
(g9
S'\x06\x81\x9c\xfdr5\xa3?'
p657
tp658
Rp659
sg74
Nsbsg80
I01
sbsg130
(lp660
g619
ag655
ag622
ag634
ag646
ag637
ag625
asg132
I7
sbag616
a(iptreeopt.tree
PTree
p661
(dp662
g64
g65
(g66
g67
Ntp663
Rp664
(dp665
g71
I0
sg79
g65
(g66
g67
Ntp666
Rp667
(dp668
g71
I0
sg79
g65
(g75
g67
Ntp669
Rp670
(dp671
g79
Nsg80
I00
sg81
g5
(g9
S'\x00\x00\x00\x00\x00\x00\xf0?'
p672
tp673
Rp674
sg74
Nsbsg72
g105
sg101
g5
(g9
S'\x802\x16VP\xc2p@'
p675
tp676
Rp677
sg74
g65
(g66
g67
Ntp678
Rp679
(dp680
g71
I1
sg79
g65
(g75
g67
Ntp681
Rp682
(dp683
g79
Nsg80
I00
sg81
g5
(g9
S'\x00\x00\x00\x00\x00\x00\x00\x00'
p684
tp685
Rp686
sg74
Nsbsg72
g73
sg101
g5
(g9
S'|\xd2d\xda\xc7\x80d@'
p687
tp688
Rp689
sg74
g65
(g75
g67
Ntp690
Rp691
(dp692
g79
Nsg80
I00
sg81
g5
(g9
S'\xc2_\x146\xb8\x80\xef?'
p693
tp694
Rp695
sg74
Nsbsg80
I01
sbsg80
I01
sbsg72
g105
sg101
g5
(g9
S'\xf2c\xef\x8b\xbcCW@'
p696
tp697
Rp698
sg74
g65
(g75
g67
Ntp699
Rp700
(dp701
g79
Nsg80
I00
sg81
g5
(g9
S'\x00\x00\x00\x00\x00\x00\x00\x00'
p702
tp703
Rp704
sg74
Nsbsg80
I01
sbsg130
(lp705
g664
ag700
ag667
ag679
ag691
ag682
ag670
asg132
I7
sba(iptreeopt.tree
PTree
p706
(dp707
g64
g65
(g66
g67
Ntp708
Rp709
(dp710
g71
I0
sg79
g65
(g75
g67
Ntp711
Rp712
(dp713
g79
Nsg80
I00
sg81
g5
(g9
S'q\x1fw&\xff\xed\xee?'
p714
tp715
Rp716
sg74
Nsbsg72
g105
sg101
g5
(g9
S'\xe2<\x94\x05\x19\xden@'
p717
tp718
Rp719
sg74
g65
(g66
g67
Ntp720
Rp721
(dp722
g71
I1
sg79
g65
(g75
g67
Ntp723
Rp724
(dp725
g79
Nsg80
I00
sg81
g5
(g9
S'\x00\x00\x00\x00\x00\x00\x00\x00'
p726
tp727
Rp728
sg74
Nsbsg72
g73
sg101
g5
(g9
S'h\x18\x92\x879\x1cX@'
p729
tp730
Rp731
sg74
g65
(g75
g67
Ntp732
Rp733
(dp734
g79
Nsg80
I00
sg81
g5
(g9
S'\x00\x00\x00\x00\x00\x00\xf0?'
p735
tp736
Rp737
sg74
Nsbsg80
I01
sbsg80
I01
sbsg130
(lp738
g709
ag721
ag733
ag724
ag712
asg132
I5
sba(iptreeopt.tree
PTree
p739
(dp740
g64
g65
(g66
g67
Ntp741
Rp742
(dp743
g71
I0
sg79
g65
(g75
g67
Ntp744
Rp745
(dp746
g79
Nsg80
I00
sg81
g5
(g9
S'\x00\x00\x00\x00\x00\x00\xf0?'
p747
tp748
Rp749
sg74
Nsbsg72
g105
sg101
g5
(g9
S'\xe2<\x94\x05\x19\xden@'
p750
tp751
Rp752
sg74
g65
(g66
g67
Ntp753
Rp754
(dp755
g71
I1
sg79
g65
(g75
g67
Ntp756
Rp757
(dp758
g79
Nsg80
I00
sg81
g5
(g9
S'\x00\x00\x00\x00\x00\x00\x00\x00'
p759
tp760
Rp761
sg74
Nsbsg72
g73
sg101
g5
(g9
S'h\x18\x92\x879\x1cX@'
p762
tp763
Rp764
sg74
g65
(g75
g67
Ntp765
Rp766
(dp767
g79
Nsg80
I00
sg81
g5
(g9
S'\x00\x00\x00\x00\x00\x00\xf0?'
p768
tp769
Rp770
sg74
Nsbsg80
I01
sbsg80
I01
sbsg130
(lp771
g742
ag754
ag766
ag757
ag745
asg132
I5
sba(iptreeopt.tree
PTree
p772
(dp773
g64
g65
(g66
g67
Ntp774
Rp775
(dp776
g71
I0
sg79
g65
(g66
g67
Ntp777
Rp778
(dp779
g71
I0
sg79
g65
(g75
g67
Ntp780
Rp781
(dp782
g79
Nsg80
I00
sg81
g5
(g9
S'\x00\x00\x00\x00\x00\x00\xf0?'
p783
tp784
Rp785
sg74
Nsbsg72
g105
sg101
g5
(g9
S'\x00\x00\x00\x00\x00\xe0p@'
p786
tp787
Rp788
sg74
g65
(g66
g67
Ntp789
Rp790
(dp791
g71
I1
sg79
g65
(g75
g67
Ntp792
Rp793
(dp794
g79
Nsg80
I00
sg81
g5
(g9
S'\x00\x00\x00\x00\x00\x00\x00\x00'
p795
tp796
Rp797
sg74
Nsbsg72
g73
sg101
g5
(g9
S'\xa2\x86\xb3\x13U\xb1Z@'
p798
tp799
Rp800
sg74
g65
(g75
g67
Ntp801
Rp802
(dp803
g79
Nsg80
I00
sg81
g5
(g9
S'\xf2\xaf\xf9Ru\xef\xe9?'
p804
tp805
Rp806
sg74
Nsbsg80
I01
sbsg80
I01
sbsg72
g105
sg101
g5
(g9
S'\x10\xe0(\x93*\x8fQ@'
p807
tp808
Rp809
sg74
g65
(g75
g67
Ntp810
Rp811
(dp812
g79
Nsg80
I00
sg81
g5
(g9
S'\x00\x00\x00\x00\x00\x00\x00\x00'
p813
tp814
Rp815
sg74
Nsbsg80
I01
sbsg130
(lp816
g775
ag811
ag778
ag790
ag802
ag793
ag781
asg132
I7
sba(iptreeopt.tree
PTree
p817
(dp818
g64
g65
(g66
g67
Ntp819
Rp820
(dp821
g71
I0
sg79
g65
(g75
g67
Ntp822
Rp823
(dp824
g79
Nsg80
I00
sg81
g5
(g9
S'\x00\x00\x00\x00\x00\x00\xf0?'
p825
tp826
Rp827
sg74
Nsbsg72
g105
sg101
g5
(g9
S'\xe64\xd5jw\x0bo@'
p828
tp829
Rp830
sg74
g65
(g66
g67
Ntp831
Rp832
(dp833
g71
I1
sg79
g65
(g75
g67
Ntp834
Rp835
(dp836
g79
Nsg80
I00
sg81
g5
(g9
S'\x00\x00\x00\x00\x00\x00\x00\x00'
p837
tp838
Rp839
sg74
Nsbsg72
g73
sg101
g5
(g9
S'\x8f6\xb1\x80oMV@'
p840
tp841
Rp842
sg74
g65
(g75
g67
Ntp843
Rp844
(dp845
g79
Nsg80
I00
sg81
g5
(g9
S'n\xcb\xf8\x1cm\xe0\xec?'
p846
tp847
Rp848
sg74
Nsbsg80
I01
sbsg80
I01
sbsg130
(lp849
g820
ag832
ag844
ag835
ag823
asg132
I5
sbag817
ag817
ag817
ag817
ag817
ag817
ag817
ag817
ag817
ag817
ag817
ag817
ag817
ag817
ag817
ag817
ag817
ag817
ag817
ag817
ag817
ag817
ag817
ag817
ag817
ag817
ag817
ag817
ag817
ag817
ag817
ag817
ag817
ag817
ag817
ag817
ag817
ag817
ag817
ag817
ag817
ag817
ag817
ag817
ag817
ag817
ag817
ag817
ag817
ag817
ag817
ag817
ag817
ag817
ag817
ag817
ag817
ag817
ag817
ag817
ag817
ag817
ag817
ag817
ag817
ag817
ag817
ag817
ag817
ag817
ag817
ag817
ag817
ag817
ag817
ag817
ag817
ag817
ag817
ag817
ag817
ag817
ag817
ag817
ag817
ag817
ag817
ag817
ag817
ag817
ag817
ag817
ag817
ag817
ag817
ag817
ag817
ag817
ag817
ag817
ag817
ag817
ag817
ag817
ag817
ag817
ag817
ag817
ag817
ag817
ag817
ag817
ag817
ag817
ag817
ag817
ag817
ag817
ag817
ag817
ag817
ag817
ag817
ag817
ag817
ag817
ag817
ag817
ag817
ag817
ag817
ag817
ag817
ag817
ag817
ag817
ag817
ag817
ag817
ag817
ag817
ag817
ag817
ag817
ag817
ag817
ag817
ag817
ag817
ag817
ag817
ag817
ag817
ag817
ag817
ag817
ag817
ag817
ag817
ag817
ag817
ag817
ag817
ag817
ag817
ag817
ag817
ag817
ag817
ag817
ag817
ag817
ag817
ag817
ag817
ag817
ag817
ag817
ag817
ag817
ag817
ag817
ag817
ag817
ag817
ag817
ag817
ag817
ag817
ag817
ag817
ag817
ag817
ag817
ag817
ag817
ag817
ag817
ag817
ag817
ag817
ag817
ag817
ag817
ag817
ag817
ag817
ag817
ag817
ag817
ag817
ag817
ag817
ag817
ag817
ag817
ag817
ag817
ag817
ag817
ag817
ag817
ag817
ag817
ag817
ag817
ag817
ag817
ag817
ag817
ag817
ag817
ag817
ag817
ag817
ag817
ag817
ag817
ag817
ag817
ag817
ag817
ag817
ag817
ag817
ag817
ag817
ag817
ag817
ag817
ag817
ag817
ag817
ag817
ag817
ag817
ag817
ag817
ag817
ag817
ag817
ag817
ag817
ag817
ag817
ag817
ag817
ag817
ag817
ag817
ag817
ag817
ag817
ag817
ag817
ag817
ag817
ag817
ag817
ag817
ag817
ag817
ag817
ag817
ag817
ag817
ag817
ag817
ag817
ag817
ag817
ag817
ag817
ag817
ag817
ag817
ag817
ag817
ag817
ag817
ag817
ag817
ag817
ag817
ag817
ag817
ag817
ag817
ag817
ag817
ag817
ag817
ag817
ag817
ag817
ag817
ag817
ag817
ag817
ag817
ag817
ag817
ag817
ag817
ag817
ag817
ag817
ag817
ag817
ag817
ag817
ag817
ag817
ag817
ag817
ag817
ag817
ag817
ag817
ag817
ag817
ag817
ag817
ag817
ag817
ag817
ag817
ag817
ag817
ag817
ag817
ag817
ag817
ag817
ag817
ag817
ag817
ag817
ag817
ag817
ag817
ag817
ag817
ag817
ag817
ag817
ag817
ag817
ag817
ag817
ag817
ag817
ag817
ag817
ag817
ag817
ag817
ag817
ag817
ag817
ag817
ag817
ag817
ag817
ag817
ag817
ag817
ag817
ag817
ag817
ag817
ag817
ag817
ag817
ag817
ag817
ag817
ag817
ag817
ag817
ag817
ag817
ag817
ag817
ag817
ag817
ag817
ag817
ag817
ag817
ag817
ag817
ag817
ag817
ag817
ag817
ag817
ag817
ag817
ag817
ag817
ag817
ag817
ag817
ag817
ag817
ag817
ag817
ag817
ag817
ag817
ag817
ag817
ag817
ag817
ag817
ag817
ag817
ag817
ag817
ag817
ag817
ag817
ag817
ag817
ag817
ag817
ag817
ag817
ag817
ag817
ag817
ag817
ag817
ag817
ag817
ag817
ag817
ag817
ag817
ag817
ag817
ag817
ag817
ag817
ag817
ag817
ag817
ag817
ag817
ag817
ag817
ag817
ag817
ag817
ag817
ag817
ag817
ag817
ag817
ag817
ag817
ag817
ag817
ag817
ag817
ag817
ag817
ag817
ag817
ag817
ag817
ag817
ag817
ag817
ag817
ag817
ag817
ag817
ag817
ag817
ag817
ag817
ag817
ag817
ag817
ag817
ag817
ag817
ag817
ag817
ag817
ag817
ag817
ag817
ag817
ag817
ag817
ag817
ag817
ag817
ag817
ag817
ag817
ag817
ag817
ag817
ag817
ag817
ag817
ag817
ag817
ag817
ag817
ag817
ag817
ag817
ag817
ag817
ag817
ag817
ag817
ag817
ag817
ag817
ag817
ag817
ag817
ag817
ag817
ag817
ag817
ag817
ag817
ag817
ag817
ag817
ag817
ag817
ag817
ag817
ag817
ag817
ag817
ag817
ag817
ag817
ag817
ag817
ag817
ag817
ag817
ag817
ag817
ag817
ag817
ag817
ag817
ag817
ag817
ag817
ag817
ag817
ag817
ag817
ag817
ag817
ag817
ag817
ag817
ag817
ag817
ag817
ag817
ag817
ag817
ag817
ag817
ag817
ag817
ag817
ag817
ag817
ag817
ag817
ag817
ag817
ag817
ag817
ag817
ag817
ag817
ag817
ag817
ag817
ag817
ag817
ag817
ag817
ag817
ag817
ag817
ag817
ag817
ag817
ag817
ag817
ag817
ag817
ag817
ag817
ag817
ag817
ag817
ag817
ag817
ag817
ag817
ag817
ag817
ag817
ag817
ag817
ag817
ag817
ag817
ag817
ag817
ag817
ag817
ag817
ag817
ag817
ag817
ag817
ag817
ag817
ag817
ag817
ag817
ag817
ag817
ag817
ag817
ag817
ag817
ag817
ag817
ag817
ag817
ag817
ag817
ag817
ag817
ag817
ag817
ag817
ag817
ag817
ag817
ag817
ag817
ag817
ag817
ag817
ag817
ag817
ag817
ag817
ag817
ag817
ag817
ag817
ag817
ag817
ag817
ag817
ag817
ag817
ag817
ag817
ag817
ag817
ag817
ag817
ag817
ag817
ag817
ag817
ag817
ag817
ag817
ag817
ag817
ag817
ag817
ag817
ag817
ag817
ag817
ag817
ag817
ag817
ag817
ag817
ag817
ag817
ag817
ag817
ag817
ag817
ag817
ag817
ag817
ag817
ag817
ag817
ag817
ag817
ag817
ag817
ag817
ag817
ag817
ag817
ag817
ag817
ag817
ag817
ag817
ag817
ag817
ag817
ag817
ag817
ag817
ag817
ag817
ag817
ag817
ag817
ag817
ag817
ag817
ag817
ag817
a(iptreeopt.tree
PTree
p850
(dp851
g64
g65
(g66
g67
Ntp852
Rp853
(dp854
g71
I0
sg79
g65
(g75
g67
Ntp855
Rp856
(dp857
g79
Nsg80
I00
sg81
g5
(g9
S'\x00\x00\x00\x00\x00\x00\xf0?'
p858
tp859
Rp860
sg74
Nsbsg72
g105
sg101
g5
(g9
S'\xe64\xd5jw\x0bo@'
p861
tp862
Rp863
sg74
g65
(g66
g67
Ntp864
Rp865
(dp866
g71
I1
sg79
g65
(g75
g67
Ntp867
Rp868
(dp869
g79
Nsg80
I00
sg81
g5
(g9
S'\x00\x00\x00\x00\x00\x00\x00\x00'
p870
tp871
Rp872
sg74
Nsbsg72
g73
sg101
g5
(g9
S'\xb0\x83\xf5\xe8\xae\x00[@'
p873
tp874
Rp875
sg74
g65
(g75
g67
Ntp876
Rp877
(dp878
g79
Nsg80
I00
sg81
g5
(g9
S'r\xd9f\xf5g\xfb\xe7?'
p879
tp880
Rp881
sg74
Nsbsg80
I01
sbsg80
I01
sbsg130
(lp882
g853
ag865
ag877
ag868
ag856
asg132
I5
sbag850
ag850
ag850
ag850
ag850
ag850
ag850
ag850
ag850
ag850
ag850
ag850
ag850
ag850
ag850
ag850
ag850
ag850
ag850
ag850
ag850
ag850
ag850
ag850
ag850
ag850
ag850
ag850
ag850
ag850
ag850
ag850
ag850
ag850
ag850
ag850
ag850
ag850
ag850
ag850
ag850
ag850
ag850
ag850
ag850
ag850
ag850
ag850
ag850
ag850
ag850
ag850
ag850
ag850
ag850
ag850
ag850
ag850
ag850
ag850
ag850
ag850
ag850
ag850
ag850
ag850
ag850
ag850
ag850
ag850
ag850
ag850
ag850
ag850
ag850
ag850
ag850
ag850
a(iptreeopt.tree
PTree
p883
(dp884
g64
g65
(g66
g67
Ntp885
Rp886
(dp887
g71
I0
sg79
g65
(g75
g67
Ntp888
Rp889
(dp890
g79
Nsg80
I00
sg81
g5
(g9
S'\x00\x00\x00\x00\x00\x00\xf0?'
p891
tp892
Rp893
sg74
Nsbsg72
g105
sg101
g5
(g9
S'\x99\xafA\x12#\x0eo@'
p894
tp895
Rp896
sg74
g65
(g66
g67
Ntp897
Rp898
(dp899
g71
I1
sg79
g65
(g75
g67
Ntp900
Rp901
(dp902
g79
Nsg80
I00
sg81
g5
(g9
S'\x00\x00\x00\x00\x00\x00\x00\x00'
p903
tp904
Rp905
sg74
Nsbsg72
g73
sg101
g5
(g9
S'\xb0\x83\xf5\xe8\xae\x00[@'
p906
tp907
Rp908
sg74
g65
(g75
g67
Ntp909
Rp910
(dp911
g79
Nsg80
I00
sg81
g5
(g9
S'\xae\xa8 S]\xb7\xe7?'
p912
tp913
Rp914
sg74
Nsbsg80
I01
sbsg80
I01
sbsg130
(lp915
g886
ag898
ag910
ag901
ag889
asg132
I5
sbag883
ag883
ag883
ag883
ag883
ag883
ag883
ag883
ag883
ag883
ag883
ag883
ag883
ag883
ag883
ag883
ag883
ag883
ag883
ag883
ag883
ag883
ag883
ag883
ag883
ag883
ag883
ag883
ag883
ag883
ag883
ag883
ag883
ag883
ag883
ag883
ag883
ag883
ag883
ag883
ag883
ag883
ag883
ag883
ag883
ag883
ag883
ag883
ag883
ag883
ag883
ag883
ag883
ag883
ag883
ag883
ag883
ag883
ag883
ag883
ag883
ag883
ag883
ag883
ag883
ag883
ag883
ag883
ag883
ag883
ag883
ag883
ag883
ag883
ag883
ag883
ag883
ag883
ag883
ag883
ag883
ag883
ag883
ag883
ag883
ag883
ag883
ag883
ag883
ag883
ag883
ag883
ag883
ag883
ag883
ag883
ag883
ag883
ag883
ag883
ag883
ag883
ag883
ag883
ag883
ag883
ag883
ag883
ag883
ag883
ag883
ag883
ag883
ag883
ag883
ag883
ag883
ag883
ag883
ag883
ag883
ag883
ag883
ag883
ag883
ag883
ag883
ag883
ag883
ag883
ag883
ag883
ag883
ag883
ag883
ag883
ag883
ag883
ag883
ag883
ag883
ag883
ag883
ag883
ag883
ag883
ag883
ag883
ag883
ag883
ag883
ag883
ag883
ag883
ag883
ag883
ag883
ag883
ag883
ag883
ag883
ag883
ag883
ag883
ag883
ag883
ag883
ag883
ag883
ag883
ag883
ag883
ag883
ag883
ag883
asS'time'
p916
(lp917
I1
aI3
aI4
aI5
aI6
aI7
aI8
aI9
aI10
aI11
aI12
aI13
aI14
aI15
aI16
aI17
aI18
aI19
aI20
aI21
aI22
aI23
aI24
aI25
aI26
aI27
aI28
aI29
aI30
aI31
aI32
aI33
aI34
aI35
aI36
aI37
aI38
aI39
aI39
aI40
aI41
aI42
aI43
aI44
aI45
aI46
aI47
aI48
aI49
aI50
aI51
aI52
aI53
aI54
aI55
aI56
aI57
aI58
aI59
aI60
aI61
aI62
aI63
aI64
aI65
aI66
aI67
aI68
aI69
aI70
aI71
aI72
aI73
aI73
aI74
aI75
aI76
aI77
aI78
aI79
aI80
aI81
aI82
aI83
aI84
aI85
aI86
aI87
aI88
aI89
aI90
aI91
aI92
aI93
aI94
aI95
aI96
aI97
aI98
aI99
aI100
aI101
aI102
aI103
aI104
aI105
aI106
aI107
aI108
aI109
aI110
aI111
aI112
aI113
aI114
aI115
aI116
aI117
aI118
aI119
aI120
aI121
aI122
aI123
aI124
aI125
aI126
aI127
aI128
aI129
aI130
aI131
aI132
aI133
aI134
aI135
aI136
aI137
aI138
aI139
aI140
aI141
aI142
aI143
aI144
aI145
aI146
aI147
aI148
aI149
aI150
aI151
aI152
aI153
aI154
aI155
aI156
aI157
aI158
aI159
aI160
aI161
aI162
aI163
aI164
aI165
aI166
aI167
aI168
aI169
aI170
aI171
aI172
aI173
aI174
aI175
aI176
aI177
aI178
aI179
aI180
aI181
aI182
aI183
aI184
aI185
aI186
aI187
aI188
aI189
aI190
aI191
aI192
aI193
aI194
aI195
aI196
aI197
aI198
aI199
aI200
aI201
aI202
aI203
aI204
aI205
aI206
aI207
aI208
aI209
aI210
aI211
aI212
aI213
aI214
aI215
aI216
aI217
aI218
aI219
aI220
aI221
aI222
aI223
aI224
aI225
aI226
aI227
aI228
aI229
aI230
aI231
aI232
aI233
aI234
aI235
aI236
aI237
aI238
aI239
aI240
aI240
aI241
aI242
aI243
aI244
aI245
aI246
aI247
aI248
aI249
aI250
aI251
aI252
aI254
aI255
aI256
aI257
aI258
aI259
aI260
aI261
aI262
aI263
aI264
aI265
aI266
aI267
aI268
aI269
aI270
aI271
aI272
aI273
aI274
aI275
aI276
aI277
aI278
aI279
aI280
aI281
aI282
aI283
aI284
aI285
aI286
aI287
aI288
aI289
aI290
aI291
aI292
aI293
aI294
aI295
aI296
aI297
aI298
aI299
aI300
aI301
aI302
aI303
aI304
aI305
aI306
aI307
aI308
aI309
aI310
aI311
aI312
aI313
aI314
aI315
aI316
aI317
aI318
aI319
aI320
aI321
aI322
aI323
aI324
aI325
aI326
aI327
aI328
aI329
aI330
aI331
aI332
aI333
aI334
aI335
aI336
aI337
aI338
aI339
aI340
aI341
aI342
aI343
aI344
aI345
aI346
aI347
aI348
aI349
aI350
aI351
aI352
aI353
aI354
aI355
aI356
aI357
aI358
aI359
aI360
aI361
aI362
aI363
aI364
aI365
aI366
aI367
aI368
aI369
aI370
aI371
aI372
aI373
aI374
aI375
aI376
aI377
aI378
aI379
aI380
aI381
aI382
aI383
aI384
aI385
aI386
aI387
aI388
aI389
aI390
aI391
aI392
aI393
aI394
aI395
aI396
aI397
aI398
aI399
aI400
aI401
aI402
aI403
aI404
aI405
aI406
aI407
aI408
aI409
aI410
aI411
aI412
aI413
aI414
aI415
aI416
aI417
aI418
aI419
aI420
aI421
aI422
aI423
aI424
aI425
aI426
aI427
aI428
aI429
aI430
aI431
aI432
aI433
aI434
aI435
aI436
aI437
aI438
aI439
aI440
aI441
aI442
aI443
aI444
aI445
aI446
aI447
aI449
aI450
aI451
aI452
aI453
aI454
aI455
aI456
aI457
aI458
aI459
aI460
aI461
aI462
aI463
aI464
aI465
aI466
aI467
aI468
aI469
aI470
aI471
aI472
aI473
aI474
aI475
aI476
aI477
aI478
aI479
aI480
aI481
aI482
aI483
aI483
aI484
aI485
aI486
aI487
aI488
aI489
aI490
aI491
aI492
aI493
aI494
aI495
aI496
aI497
aI498
aI499
aI500
aI501
aI502
aI503
aI504
aI505
aI506
aI507
aI508
aI509
aI510
aI511
aI512
aI512
aI513
aI514
aI515
aI516
aI517
aI518
aI519
aI520
aI521
aI522
aI523
aI524
aI525
aI526
aI527
aI528
aI529
aI530
aI531
aI532
aI532
aI533
aI534
aI535
aI536
aI537
aI538
aI539
aI540
aI541
aI542
aI543
aI544
aI545
aI546
aI547
aI548
aI549
aI550
aI551
aI552
aI553
aI554
aI555
aI556
aI557
aI558
aI559
aI560
aI560
aI561
aI562
aI563
aI564
aI565
aI566
aI567
aI568
aI569
aI570
aI571
aI572
aI573
aI574
aI575
aI576
aI577
aI578
aI579
aI580
aI581
aI582
aI583
aI584
aI585
aI586
aI587
aI588
aI589
aI590
aI591
aI592
aI593
aI594
aI595
aI596
aI597
aI598
aI599
aI600
aI600
aI601
aI602
aI603
aI604
aI605
aI606
aI607
aI608
aI609
aI610
aI611
aI613
aI614
aI615
aI616
aI617
aI617
aI618
aI619
aI620
aI621
aI622
aI623
aI624
aI625
aI626
aI627
aI628
aI629
aI630
aI631
aI632
aI633
aI634
aI635
aI636
aI637
aI638
aI639
aI640
aI641
aI642
aI643
aI644
aI645
aI646
aI647
aI648
aI649
aI650
aI651
aI652
aI653
aI654
aI655
aI656
aI657
aI658
aI659
aI660
aI661
aI662
aI663
aI664
aI665
aI666
aI667
aI668
aI669
aI670
aI671
aI672
aI673
aI674
aI675
aI676
aI677
aI678
aI679
aI680
aI681
aI682
aI683
aI684
aI685
aI686
aI688
aI689
aI690
aI691
aI692
aI693
aI694
aI695
aI696
aI697
aI699
aI700
aI701
aI702
aI703
aI704
aI705
aI706
aI707
aI708
aI709
aI710
aI711
aI712
aI713
aI714
aI715
aI716
aI717
aI718
aI720
aI720
aI721
aI722
aI723
aI724
aI725
aI726
aI727
aI728
aI729
aI730
aI731
aI732
aI733
aI734
aI735
aI736
aI737
aI738
aI739
aI740
aI741
aI742
aI743
aI744
aI745
aI746
aI747
aI748
aI749
aI750
aI751
aI752
aI753
aI754
aI755
aI756
aI757
aI758
aI759
aI760
aI761
aI763
aI764
aI765
aI766
aI767
aI768
aI769
aI770
aI771
aI772
aI773
aI774
aI775
aI776
aI777
aI778
aI779
aI780
aI781
aI782
aI783
aI784
aI785
aI786
aI787
aI788
aI789
aI790
aI791
aI792
aI793
aI794
aI795
aI796
aI797
aI798
aI799
aI800
aI801
aI802
aI803
aI804
aI805
aI806
aI807
aI808
aI809
aI810
aI811
aI812
aI813
aI814
aI815
aI816
aI817
aI818
aI819
aI820
aI821
aI822
aI823
aI824
aI825
aI826
aI827
aI828
aI829
aI830
aI831
aI832
aI833
aI834
aI835
aI836
aI837
aI838
aI839
aI840
aI841
aI842
aI843
aI844
aI845
aI846
aI847
aI848
aI849
aI850
aI851
aI852
aI853
aI854
aI855
aI856
aI857
aI858
aI859
aI860
aI861
aI862
aI863
aI864
aI865
aI867
aI868
aI869
aI870
aI871
aI872
aI873
aI874
aI875
aI876
aI877
aI878
aI879
aI880
aI881
aI882
aI883
aI884
aI885
aI886
aI887
aI888
aI889
aI890
aI891
aI892
aI893
aI894
aI895
aI896
aI897
aI898
aI899
aI900
aI901
aI902
aI903
aI904
aI905
aI906
aI907
aI908
aI909
aI910
aI911
aI912
aI913
aI914
aI915
aI916
aI917
aI918
aI919
aI920
aI921
aI922
aI923
aI924
aI925
aI926
aI927
aI928
aI929
aI930
aI931
aI932
aI933
aI934
aI935
aI936
aI937
aI938
aI939
aI940
aI941
aI942
aI943
aI944
aI945
aI946
aI947
aI948
aI949
aI950
aI951
aI952
aI953
aI954
aI955
aI956
aI957
aI958
aI959
aI960
aI961
aI962
aI963
aI964
aI965
aI966
aI967
aI968
aI969
aI970
aI971
aI972
aI973
aI974
aI975
aI976
aI977
aI978
aI979
aI980
aI981
aI982
aI983
aI984
aI985
aI986
aI987
aI988
aI989
aI990
aI991
aI992
aI993
aI994
aI995
aI996
aI997
aI998
aI999
aI1000
aI1001
aI1002
aI1003
aI1004
aI1005
aI1007
aI1008
aI1009
aI1010
aI1011
aI1012
aI1013
aI1014
aI1014
aI1016
aI1017
aI1018
aI1019
aI1020
aI1021
aI1022
aI1023
aI1024
aI1025
aI1026
aI1027
aI1028
aI1029
aI1030
aI1031
aI1032
aI1033
aI1034
aI1034
aI1035
aI1036
aI1037
aI1038
aI1039
aI1040
aI1041
as.