(dp0
S'nfe'
p1
(lp2
I2016
aI4032
aI6048
aI8064
aI10080
aI12096
aI14112
aI16128
aI18144
aI20160
aI22176
aI24192
aI26208
aI28224
aI30240
aI32256
aI34272
aI36288
aI38304
aI40320
aI42336
aI44352
aI46368
aI48384
aI50400
aI52416
aI54432
aI56448
aI58464
aI60480
aI62496
aI64512
aI66528
aI68544
aI70560
aI72576
aI74592
aI76608
aI78624
aI80640
aI82656
aI84672
aI86688
aI88704
aI90720
aI92736
aI94752
aI96768
aI98784
aI100800
aI102816
aI104832
aI106848
aI108864
aI110880
aI112896
aI114912
aI116928
aI118944
aI120960
aI122976
aI124992
aI127008
aI129024
aI131040
aI133056
aI135072
aI137088
aI139104
aI141120
aI143136
aI145152
aI147168
aI149184
aI151200
aI153216
aI155232
aI157248
aI159264
aI161280
aI163296
aI165312
aI167328
aI169344
aI171360
aI173376
aI175392
aI177408
aI179424
aI181440
aI183456
aI185472
aI187488
aI189504
aI191520
aI193536
aI195552
aI197568
aI199584
asS'best_f'
p3
(lp4
cnumpy.core.multiarray
scalar
p5
(cnumpy
dtype
p6
(S'f8'
p7
I0
I1
tp8
Rp9
(I3
S'<'
p10
NNNI-1
I-1
I0
tp11
bS'\x12\xdd\x04\xce\xf60S@'
p12
tp13
Rp14
ag14
ag14
ag14
ag14
ag5
(g9
S'\xba\xf6\xc7S\xee0S@'
p15
tp16
Rp17
ag17
ag5
(g9
S'c\x87ee5+S@'
p18
tp19
Rp20
ag20
ag20
ag20
ag5
(g9
S'\xa8\\&\xa3\x16!S@'
p21
tp22
Rp23
ag23
ag23
ag23
ag23
ag23
ag23
ag23
ag23
ag23
ag23
ag5
(g9
S'\xeb\n\xb3T\x10\x17S@'
p24
tp25
Rp26
ag26
ag5
(g9
S'\xc3\x80\xcb\xbb\x05\x13S@'
p27
tp28
Rp29
ag29
ag29
ag29
ag29
ag29
ag29
ag29
ag29
ag29
ag5
(g9
S'\x90\x00P3\x17\x0cS@'
p30
tp31
Rp32
ag32
ag32
ag32
ag32
ag32
ag32
ag32
ag32
ag32
ag32
ag32
ag32
ag32
ag32
ag32
ag32
ag32
ag32
ag32
ag32
ag32
ag32
ag32
ag32
ag32
ag32
ag32
ag32
ag32
ag32
ag32
ag32
ag32
ag32
ag32
ag32
ag32
ag32
ag32
ag32
ag32
ag32
ag32
ag32
ag32
ag32
ag32
ag32
ag32
ag32
ag32
ag32
ag32
ag32
ag32
ag32
ag32
ag32
ag32
ag32
ag32
ag32
ag32
ag32
asS'best_P'
p33
(lp34
(iptreeopt.tree
PTree
p35
(dp36
S'root'
p37
ccopy_reg
_reconstructor
p38
(cptreeopt.tree
Feature
p39
c__builtin__
object
p40
Ntp41
Rp42
(dp43
S'index'
p44
I1
sS'r'
p45
g38
(cptreeopt.tree
Action
p46
g40
Ntp47
Rp48
(dp49
g45
NsS'is_feature'
p50
I00
sS'value'
p51
g5
(g9
S'#2z\xf1\xd9\x8cC?'
p52
tp53
Rp54
sS'l'
p55
NsbsS'name'
p56
S'Day'
p57
sS'threshold'
p58
g5
(g9
S'\x83\xdd\xcb\xe7/\xbdX@'
p59
tp60
Rp61
sg55
g38
(g39
g40
Ntp62
Rp63
(dp64
g44
I2
sg45
g38
(g46
g40
Ntp65
Rp66
(dp67
g45
Nsg50
I00
sg51
g5
(g9
S'\x0c:\x1b\x1dN\xf7\xe0?'
p68
tp69
Rp70
sg55
Nsbsg56
S'Inflow'
p71
sg58
g5
(g9
S'lg\xcb\xd4K\xa2\x1d@'
p72
tp73
Rp74
sg55
g38
(g46
g40
Ntp75
Rp76
(dp77
g45
Nsg50
I00
sg51
g5
(g9
S'\x00\x00\x00\x00\x00\x00\xf0?'
p78
tp79
Rp80
sg55
Nsbsg50
I01
sbsg50
I01
sbsS'L'
p81
(lp82
g42
ag63
ag76
ag66
ag48
asS'N'
p83
I5
sbag35
ag35
ag35
ag35
a(iptreeopt.tree
PTree
p84
(dp85
g37
g38
(g39
g40
Ntp86
Rp87
(dp88
g44
I1
sg45
g38
(g46
g40
Ntp89
Rp90
(dp91
g45
Nsg50
I00
sg51
g5
(g9
S'#2z\xf1\xd9\x8cC?'
p92
tp93
Rp94
sg55
Nsbsg56
g57
sg58
g5
(g9
S'\x83\xdd\xcb\xe7/\xbdX@'
p95
tp96
Rp97
sg55
g38
(g39
g40
Ntp98
Rp99
(dp100
g44
I2
sg45
g38
(g46
g40
Ntp101
Rp102
(dp103
g45
Nsg50
I00
sg51
g5
(g9
S'\xf1\x03E\xcfm\x81\xd8?'
p104
tp105
Rp106
sg55
Nsbsg56
g71
sg58
g5
(g9
S'\x17\x88\xdcY\x7f\x90$@'
p107
tp108
Rp109
sg55
g38
(g46
g40
Ntp110
Rp111
(dp112
g45
Nsg50
I00
sg51
g5
(g9
S'\x00\x00\x00\x00\x00\x00\xf0?'
p113
tp114
Rp115
sg55
Nsbsg50
I01
sbsg50
I01
sbsg81
(lp116
g87
ag99
ag111
ag102
ag90
asg83
I5
sbag84
a(iptreeopt.tree
PTree
p117
(dp118
g37
g38
(g39
g40
Ntp119
Rp120
(dp121
g44
I1
sg45
g38
(g46
g40
Ntp122
Rp123
(dp124
g45
Nsg50
I00
sg51
g5
(g9
S'vb\xdc//G\x89?'
p125
tp126
Rp127
sg55
Nsbsg56
g57
sg58
g5
(g9
S'\xd0\xf7\x19\x98\xc9\xecW@'
p128
tp129
Rp130
sg55
g38
(g46
g40
Ntp131
Rp132
(dp133
g45
Nsg50
I00
sg51
g5
(g9
S'\x00\x00\x00\x00\x00\x00\xf0?'
p134
tp135
Rp136
sg55
Nsbsg50
I01
sbsg81
(lp137
g120
ag132
ag123
asg83
I3
sbag117
ag117
ag117
a(iptreeopt.tree
PTree
p138
(dp139
g37
g38
(g39
g40
Ntp140
Rp141
(dp142
g44
I1
sg45
g38
(g46
g40
Ntp143
Rp144
(dp145
g45
Nsg50
I00
sg51
g5
(g9
S'8\xfb\xd2\xc7\xde4\x91?'
p146
tp147
Rp148
sg55
Nsbsg56
g57
sg58
g5
(g9
S'\xd6\x93n"\xcd\xa7W@'
p149
tp150
Rp151
sg55
g38
(g46
g40
Ntp152
Rp153
(dp154
g45
Nsg50
I00
sg51
g5
(g9
S'\x00\x00\x00\x00\x00\x00\xf0?'
p155
tp156
Rp157
sg55
Nsbsg50
I01
sbsg81
(lp158
g141
ag153
ag144
asg83
I3
sbag138
ag138
ag138
ag138
ag138
ag138
ag138
ag138
ag138
ag138
a(iptreeopt.tree
PTree
p159
(dp160
g37
g38
(g39
g40
Ntp161
Rp162
(dp163
g44
I1
sg45
g38
(g46
g40
Ntp164
Rp165
(dp166
g45
Nsg50
I00
sg51
g5
(g9
S'\xf1\xd7\xc4\x9cz\x02\xa8?'
p167
tp168
Rp169
sg55
Nsbsg56
g57
sg58
g5
(g9
S'\xdc\xf2\xcf\xeb\x92\xa8U@'
p170
tp171
Rp172
sg55
g38
(g46
g40
Ntp173
Rp174
(dp175
g45
Nsg50
I00
sg51
g5
(g9
S'\x00\x00\x00\x00\x00\x00\xf0?'
p176
tp177
Rp178
sg55
Nsbsg50
I01
sbsg81
(lp179
g162
ag174
ag165
asg83
I3
sbag159
a(iptreeopt.tree
PTree
p180
(dp181
g37
g38
(g39
g40
Ntp182
Rp183
(dp184
g44
I1
sg45
g38
(g46
g40
Ntp185
Rp186
(dp187
g45
Nsg50
I00
sg51
g5
(g9
S'\x80\xad\x8a\xa5\x9d\xdf\xa9?'
p188
tp189
Rp190
sg55
Nsbsg56
g57
sg58
g5
(g9
S'\xe2\xf4\xf8L\r^U@'
p191
tp192
Rp193
sg55
g38
(g46
g40
Ntp194
Rp195
(dp196
g45
Nsg50
I00
sg51
g5
(g9
S'\x00\x00\x00\x00\x00\x00\xf0?'
p197
tp198
Rp199
sg55
Nsbsg50
I01
sbsg81
(lp200
g183
ag195
ag186
asg83
I3
sbag180
ag180
ag180
ag180
ag180
ag180
ag180
ag180
ag180
a(iptreeopt.tree
PTree
p201
(dp202
g37
g38
(g39
g40
Ntp203
Rp204
(dp205
g44
I1
sg45
g38
(g46
g40
Ntp206
Rp207
(dp208
g45
Nsg50
I00
sg51
g5
(g9
S'<\xed\xb9\xe3\x03\x14\xaa?'
p209
tp210
Rp211
sg55
Nsbsg56
g57
sg58
g5
(g9
S'\x13PZk\xe9GU@'
p212
tp213
Rp214
sg55
g38
(g46
g40
Ntp215
Rp216
(dp217
g45
Nsg50
I00
sg51
g5
(g9
S'\x00\x00\x00\x00\x00\x00\xf0?'
p218
tp219
Rp220
sg55
Nsbsg50
I01
sbsg81
(lp221
g204
ag216
ag207
asg83
I3
sbag201
ag201
ag201
ag201
ag201
ag201
ag201
ag201
ag201
ag201
ag201
ag201
ag201
ag201
ag201
ag201
ag201
ag201
ag201
ag201
ag201
ag201
ag201
ag201
ag201
ag201
ag201
ag201
ag201
ag201
ag201
ag201
ag201
ag201
ag201
ag201
ag201
ag201
ag201
ag201
ag201
ag201
ag201
ag201
ag201
ag201
ag201
ag201
ag201
ag201
ag201
ag201
ag201
ag201
ag201
ag201
ag201
ag201
ag201
ag201
ag201
ag201
ag201
ag201
asS'time'
p222
(lp223
I30
aI61
aI91
aI121
aI151
aI181
aI210
aI240
aI270
aI299
aI329
aI359
aI388
aI418
aI448
aI478
aI508
aI537
aI567
aI596
aI626
aI656
aI685
aI715
aI744
aI774
aI803
aI833
aI863
aI892
aI922
aI952
aI981
aI1011
aI1040
aI1070
aI1100
aI1129
aI1159
aI1189
aI1218
aI1248
aI1277
aI1307
aI1337
aI1366
aI1396
aI1425
aI1455
aI1485
aI1514
aI1543
aI1573
aI1603
aI1632
aI1662
aI1691
aI1721
aI1751
aI1781
aI1811
aI1841
aI1871
aI1901
aI1931
aI1961
aI1991
aI2020
aI2050
aI2079
aI2108
aI2137
aI2167
aI2196
aI2225
aI2255
aI2284
aI2313
aI2343
aI2372
aI2402
aI2432
aI2461
aI2491
aI2520
aI2550
aI2580
aI2609
aI2638
aI2668
aI2697
aI2727
aI2756
aI2786
aI2815
aI2845
aI2874
aI2903
aI2933
as.