(dp0
S'nfe'
p1
(lp2
I2016
aI4032
aI6048
aI8064
aI10080
aI12096
aI14112
aI16128
aI18144
aI20160
aI22176
aI24192
aI26208
aI28224
aI30240
aI32256
aI34272
aI36288
aI38304
aI40320
aI42336
aI44352
aI46368
aI48384
aI50400
aI52416
aI54432
aI56448
aI58464
aI60480
aI62496
aI64512
aI66528
aI68544
aI70560
aI72576
aI74592
aI76608
aI78624
aI80640
aI82656
aI84672
aI86688
aI88704
aI90720
aI92736
aI94752
aI96768
aI98784
aI100800
aI102816
aI104832
aI106848
aI108864
aI110880
aI112896
aI114912
aI116928
aI118944
aI120960
aI122976
aI124992
aI127008
aI129024
aI131040
aI133056
aI135072
aI137088
aI139104
aI141120
aI143136
aI145152
aI147168
aI149184
aI151200
aI153216
aI155232
aI157248
aI159264
aI161280
aI163296
aI165312
aI167328
aI169344
aI171360
aI173376
aI175392
aI177408
aI179424
aI181440
aI183456
aI185472
aI187488
aI189504
aI191520
aI193536
aI195552
aI197568
aI199584
asS'best_f'
p3
(lp4
cnumpy.core.multiarray
scalar
p5
(cnumpy
dtype
p6
(S'f8'
p7
I0
I1
tp8
Rp9
(I3
S'<'
p10
NNNI-1
I-1
I0
tp11
bS'Z\x8e\xe3N\xd8\xa5Q@'
p12
tp13
Rp14
ag5
(g9
S'\xbaG\x88\x8fs\xa3O@'
p15
tp16
Rp17
ag5
(g9
S'U\x1b\xc3\xc3D\x95O@'
p18
tp19
Rp20
ag5
(g9
S"%\xa1\xe0\xde'vN@"
p21
tp22
Rp23
ag5
(g9
S'\x9c2\xcfI\xfc\x18N@'
p24
tp25
Rp26
ag26
ag26
ag26
ag26
ag26
ag5
(g9
S'`\xbf]\xc8e\xd6M@'
p27
tp28
Rp29
ag29
ag29
ag5
(g9
S'"\xe8\xf7\x0c\xeb\xcbM@'
p30
tp31
Rp32
ag32
ag32
ag5
(g9
S'\xf8\x14m\x0c4\xcbM@'
p33
tp34
Rp35
ag35
ag35
ag35
ag35
ag35
ag35
ag35
ag35
ag35
ag35
ag5
(g9
S'`\xed\xf1Z\x82\xbaM@'
p36
tp37
Rp38
ag38
ag38
ag38
ag38
ag38
ag38
ag38
ag38
ag38
ag38
ag38
ag38
ag38
ag38
ag38
ag5
(g9
S'F\x85\x13\xe9%\xb8M@'
p39
tp40
Rp41
ag41
ag41
ag41
ag41
ag41
ag41
ag41
ag41
ag41
ag41
ag41
ag41
ag41
ag41
ag41
ag41
ag41
ag41
ag41
ag41
ag41
ag41
ag41
ag41
ag41
ag41
ag41
ag41
ag41
ag41
ag41
ag41
ag41
ag41
ag41
ag41
ag41
ag41
ag41
ag5
(g9
S'~0\xc86c\xa7M@'
p42
tp43
Rp44
ag44
ag44
ag44
ag44
ag44
ag5
(g9
S'M\x03\xb6\x9c~\x92M@'
p45
tp46
Rp47
ag47
ag47
ag47
ag47
ag47
ag47
ag47
ag47
ag47
asS'best_P'
p48
(lp49
(iptreeopt.tree
PTree
p50
(dp51
S'root'
p52
ccopy_reg
_reconstructor
p53
(cptreeopt.tree
Feature
p54
c__builtin__
object
p55
Ntp56
Rp57
(dp58
S'index'
p59
I1
sS'r'
p60
g53
(cptreeopt.tree
Action
p61
g55
Ntp62
Rp63
(dp64
g60
NsS'is_feature'
p65
I00
sS'value'
p66
g5
(g9
S'<\xeb\x97dW\xa0n?'
p67
tp68
Rp69
sS'l'
p70
NsbsS'name'
p71
S'Day'
p72
sS'threshold'
p73
g5
(g9
S'\xf0\xd6\xdd\xf7\xfc\xc1Z@'
p74
tp75
Rp76
sg70
g53
(g54
g55
Ntp77
Rp78
(dp79
g59
I0
sg60
g53
(g61
g55
Ntp80
Rp81
(dp82
g60
Nsg65
I00
sg66
g5
(g9
S'\x00\x00\x00\x00\x00\x00\xf0?'
p83
tp84
Rp85
sg70
Nsbsg71
S'Storage'
p86
sg73
g5
(g9
S'\x04\x12\rz \x90a@'
p87
tp88
Rp89
sg70
g53
(g61
g55
Ntp90
Rp91
(dp92
g60
Nsg65
I00
sg66
g5
(g9
S'\xd6\xc4\xe9\x9c%s\xdf?'
p93
tp94
Rp95
sg70
Nsbsg65
I01
sbsg65
I01
sbsS'L'
p96
(lp97
g57
ag78
ag91
ag81
ag63
asS'N'
p98
I5
sba(iptreeopt.tree
PTree
p99
(dp100
g52
g53
(g54
g55
Ntp101
Rp102
(dp103
g59
I1
sg60
g53
(g61
g55
Ntp104
Rp105
(dp106
g60
Nsg65
I00
sg66
g5
(g9
S'\x00\x00\x00\x00\x00\x00\x00\x00'
p107
tp108
Rp109
sg70
Nsbsg71
g72
sg73
g5
(g9
S'\xcbe\xc4\x88\x94Le@'
p110
tp111
Rp112
sg70
g53
(g54
g55
Ntp113
Rp114
(dp115
g59
I0
sg60
g53
(g61
g55
Ntp116
Rp117
(dp118
g60
Nsg65
I00
sg66
g5
(g9
S'/3\xdf\xb0p\x0c\xef?'
p119
tp120
Rp121
sg70
Nsbsg71
g86
sg73
g5
(g9
S'a\xea\xf0\xec\x80\xced@'
p122
tp123
Rp124
sg70
g53
(g61
g55
Ntp125
Rp126
(dp127
g60
Nsg65
I00
sg66
g5
(g9
S'\x99 6[\xae\xcc\xd3?'
p128
tp129
Rp130
sg70
Nsbsg65
I01
sbsg65
I01
sbsg96
(lp131
g102
ag114
ag126
ag117
ag105
asg98
I5
sba(iptreeopt.tree
PTree
p132
(dp133
g52
g53
(g54
g55
Ntp134
Rp135
(dp136
g59
I1
sg60
g53
(g61
g55
Ntp137
Rp138
(dp139
g60
Nsg65
I00
sg66
g5
(g9
S'\x00\x00\x00\x00\x00\x00\x00\x00'
p140
tp141
Rp142
sg70
Nsbsg71
g72
sg73
g5
(g9
S'\xcd\x88W\xa6B\x9af@'
p143
tp144
Rp145
sg70
g53
(g54
g55
Ntp146
Rp147
(dp148
g59
I0
sg60
g53
(g61
g55
Ntp149
Rp150
(dp151
g60
Nsg65
I00
sg66
g5
(g9
S'\x84\x9f\x19L\xef\x05\xef?'
p152
tp153
Rp154
sg70
Nsbsg71
g86
sg73
g5
(g9
S'a\xea\xf0\xec\x80\xced@'
p155
tp156
Rp157
sg70
g53
(g61
g55
Ntp158
Rp159
(dp160
g60
Nsg65
I00
sg66
g5
(g9
S'\xcb\x8e\xf1\xa7\x89\x99\xcf?'
p161
tp162
Rp163
sg70
Nsbsg65
I01
sbsg65
I01
sbsg96
(lp164
g135
ag147
ag159
ag150
ag138
asg98
I5
sba(iptreeopt.tree
PTree
p165
(dp166
g52
g53
(g54
g55
Ntp167
Rp168
(dp169
g59
I1
sg60
g53
(g61
g55
Ntp170
Rp171
(dp172
g60
Nsg65
I00
sg66
g5
(g9
S'\x00\x00\x00\x00\x00\x00\x00\x00'
p173
tp174
Rp175
sg70
Nsbsg71
g72
sg73
g5
(g9
S'&\x1c\x1b\xdeRIa@'
p176
tp177
Rp178
sg70
g53
(g54
g55
Ntp179
Rp180
(dp181
g59
I0
sg60
g53
(g61
g55
Ntp182
Rp183
(dp184
g60
Nsg65
I00
sg66
g5
(g9
S'\x00\x00\x00\x00\x00\x00\xf0?'
p185
tp186
Rp187
sg70
Nsbsg71
g86
sg73
g5
(g9
S'\x0e\xd7\xf1Q\x05\x00]@'
p188
tp189
Rp190
sg70
g53
(g61
g55
Ntp191
Rp192
(dp193
g60
Nsg65
I00
sg66
g5
(g9
S'\xbex\xc9B\t8\xb5?'
p194
tp195
Rp196
sg70
Nsbsg65
I01
sbsg65
I01
sbsg96
(lp197
g168
ag180
ag192
ag183
ag171
asg98
I5
sba(iptreeopt.tree
PTree
p198
(dp199
g52
g53
(g54
g55
Ntp200
Rp201
(dp202
g59
I1
sg60
g53
(g61
g55
Ntp203
Rp204
(dp205
g60
Nsg65
I00
sg66
g5
(g9
S'\x00\x00\x00\x00\x00\x00\x00\x00'
p206
tp207
Rp208
sg70
Nsbsg71
g72
sg73
g5
(g9
S'&\x1c\x1b\xdeRIa@'
p209
tp210
Rp211
sg70
g53
(g54
g55
Ntp212
Rp213
(dp214
g59
I0
sg60
g53
(g61
g55
Ntp215
Rp216
(dp217
g60
Nsg65
I00
sg66
g5
(g9
S'\x00\x00\x00\x00\x00\x00\xf0?'
p218
tp219
Rp220
sg70
Nsbsg71
g86
sg73
g5
(g9
S'G\xe5\x1e:n\xac\\@'
p221
tp222
Rp223
sg70
g53
(g61
g55
Ntp224
Rp225
(dp226
g60
Nsg65
I00
sg66
g5
(g9
S'\xc3\xc8\xc0!0\x1b\xc5?'
p227
tp228
Rp229
sg70
Nsbsg65
I01
sbsg65
I01
sbsg96
(lp230
g201
ag213
ag225
ag216
ag204
asg98
I5
sbag198
ag198
ag198
ag198
ag198
a(iptreeopt.tree
PTree
p231
(dp232
g52
g53
(g54
g55
Ntp233
Rp234
(dp235
g59
I1
sg60
g53
(g61
g55
Ntp236
Rp237
(dp238
g60
Nsg65
I00
sg66
g5
(g9
S'\x00\x00\x00\x00\x00\x00\x00\x00'
p239
tp240
Rp241
sg70
Nsbsg71
g72
sg73
g5
(g9
S'\xf4{\x08f{\xa6a@'
p242
tp243
Rp244
sg70
g53
(g54
g55
Ntp245
Rp246
(dp247
g59
I0
sg60
g53
(g61
g55
Ntp248
Rp249
(dp250
g60
Nsg65
I00
sg66
g5
(g9
S'\x00\x00\x00\x00\x00\x00\xf0?'
p251
tp252
Rp253
sg70
Nsbsg71
g86
sg73
g5
(g9
S')sl\x08"M\\@'
p254
tp255
Rp256
sg70
g53
(g61
g55
Ntp257
Rp258
(dp259
g60
Nsg65
I00
sg66
g5
(g9
S'p\t\x02H\x963\xc1?'
p260
tp261
Rp262
sg70
Nsbsg65
I01
sbsg65
I01
sbsg96
(lp263
g234
ag246
ag258
ag249
ag237
asg98
I5
sbag231
ag231
a(iptreeopt.tree
PTree
p264
(dp265
g52
g53
(g54
g55
Ntp266
Rp267
(dp268
g59
I1
sg60
g53
(g61
g55
Ntp269
Rp270
(dp271
g60
Nsg65
I00
sg66
g5
(g9
S'\x00\x00\x00\x00\x00\x00\x00\x00'
p272
tp273
Rp274
sg70
Nsbsg71
g72
sg73
g5
(g9
S'\xf4{\x08f{\xa6a@'
p275
tp276
Rp277
sg70
g53
(g54
g55
Ntp278
Rp279
(dp280
g59
I0
sg60
g53
(g61
g55
Ntp281
Rp282
(dp283
g60
Nsg65
I00
sg66
g5
(g9
S'\x00\x00\x00\x00\x00\x00\xf0?'
p284
tp285
Rp286
sg70
Nsbsg71
g86
sg73
g5
(g9
S')sl\x08"M\\@'
p287
tp288
Rp289
sg70
g53
(g61
g55
Ntp290
Rp291
(dp292
g60
Nsg65
I00
sg66
g5
(g9
S"\x93'-)4\x98\xc4?"
p293
tp294
Rp295
sg70
Nsbsg65
I01
sbsg65
I01
sbsg96
(lp296
g267
ag279
ag291
ag282
ag270
asg98
I5
sbag264
ag264
a(iptreeopt.tree
PTree
p297
(dp298
g52
g53
(g54
g55
Ntp299
Rp300
(dp301
g59
I1
sg60
g53
(g61
g55
Ntp302
Rp303
(dp304
g60
Nsg65
I00
sg66
g5
(g9
S'\x00\x00\x00\x00\x00\x00\x00\x00'
p305
tp306
Rp307
sg70
Nsbsg71
g72
sg73
g5
(g9
S'\xd3\xac\xa80Ubf@'
p308
tp309
Rp310
sg70
g53
(g54
g55
Ntp311
Rp312
(dp313
g59
I1
sg60
g53
(g61
g55
Ntp314
Rp315
(dp316
g60
Nsg65
I00
sg66
g5
(g9
S'\x00\x00\x00\x00\x00\x00\x00\x00'
p317
tp318
Rp319
sg70
Nsbsg71
g72
sg73
g5
(g9
S'\xf4{\x08f{\xa6a@'
p320
tp321
Rp322
sg70
g53
(g54
g55
Ntp323
Rp324
(dp325
g59
I0
sg60
g53
(g61
g55
Ntp326
Rp327
(dp328
g60
Nsg65
I00
sg66
g5
(g9
S'\x00\x00\x00\x00\x00\x00\xf0?'
p329
tp330
Rp331
sg70
Nsbsg71
g86
sg73
g5
(g9
S'\x9fY\xf5b\xca:\\@'
p332
tp333
Rp334
sg70
g53
(g61
g55
Ntp335
Rp336
(dp337
g60
Nsg65
I00
sg66
g5
(g9
S"\x93'-)4\x98\xc4?"
p338
tp339
Rp340
sg70
Nsbsg65
I01
sbsg65
I01
sbsg65
I01
sbsg96
(lp341
g300
ag312
ag324
ag336
ag327
ag315
ag303
asg98
I7
sbag297
ag297
ag297
ag297
ag297
ag297
ag297
ag297
ag297
ag297
a(iptreeopt.tree
PTree
p342
(dp343
g52
g53
(g54
g55
Ntp344
Rp345
(dp346
g59
I1
sg60
g53
(g61
g55
Ntp347
Rp348
(dp349
g60
Nsg65
I00
sg66
g5
(g9
S'\x00\x00\x00\x00\x00\x00\x00\x00'
p350
tp351
Rp352
sg70
Nsbsg71
g72
sg73
g5
(g9
S'\x0b!&X\x10\xa2a@'
p353
tp354
Rp355
sg70
g53
(g54
g55
Ntp356
Rp357
(dp358
g59
I0
sg60
g53
(g61
g55
Ntp359
Rp360
(dp361
g60
Nsg65
I00
sg66
g5
(g9
S'1l\x08\xb4\x18\xff\xef?'
p362
tp363
Rp364
sg70
Nsbsg71
g86
sg73
g5
(g9
S'I\xe0H\x00\xbf\xe9[@'
p365
tp366
Rp367
sg70
g53
(g61
g55
Ntp368
Rp369
(dp370
g60
Nsg65
I00
sg66
g5
(g9
S'\x12\x86\x7f\xcd\x89\x91\xc2?'
p371
tp372
Rp373
sg70
Nsbsg65
I01
sbsg65
I01
sbsg96
(lp374
g345
ag357
ag369
ag360
ag348
asg98
I5
sbag342
ag342
ag342
ag342
ag342
ag342
ag342
ag342
ag342
ag342
ag342
ag342
ag342
ag342
ag342
a(iptreeopt.tree
PTree
p375
(dp376
g52
g53
(g54
g55
Ntp377
Rp378
(dp379
g59
I1
sg60
g53
(g61
g55
Ntp380
Rp381
(dp382
g60
Nsg65
I00
sg66
g5
(g9
S'\x00\x00\x00\x00\x00\x00\x00\x00'
p383
tp384
Rp385
sg70
Nsbsg71
g72
sg73
g5
(g9
S'\x0b!&X\x10\xa2a@'
p386
tp387
Rp388
sg70
g53
(g54
g55
Ntp389
Rp390
(dp391
g59
I0
sg60
g53
(g61
g55
Ntp392
Rp393
(dp394
g60
Nsg65
I00
sg66
g5
(g9
S'\x00\x00\x00\x00\x00\x00\xf0?'
p395
tp396
Rp397
sg70
Nsbsg71
g86
sg73
g5
(g9
S'I\xe0H\x00\xbf\xe9[@'
p398
tp399
Rp400
sg70
g53
(g61
g55
Ntp401
Rp402
(dp403
g60
Nsg65
I00
sg66
g5
(g9
S'\x01\x12\xeb \xe6\xc6\xc2?'
p404
tp405
Rp406
sg70
Nsbsg65
I01
sbsg65
I01
sbsg96
(lp407
g378
ag390
ag402
ag393
ag381
asg98
I5
sbag375
ag375
ag375
ag375
ag375
ag375
ag375
ag375
ag375
ag375
ag375
ag375
ag375
ag375
ag375
ag375
ag375
ag375
ag375
ag375
ag375
ag375
ag375
ag375
ag375
ag375
ag375
ag375
ag375
ag375
ag375
ag375
ag375
ag375
ag375
ag375
ag375
ag375
ag375
a(iptreeopt.tree
PTree
p408
(dp409
g52
g53
(g54
g55
Ntp410
Rp411
(dp412
g59
I1
sg60
g53
(g61
g55
Ntp413
Rp414
(dp415
g60
Nsg65
I00
sg66
g5
(g9
S'\x00\x00\x00\x00\x00\x00\x00\x00'
p416
tp417
Rp418
sg70
Nsbsg71
g72
sg73
g5
(g9
S'\x0b!&X\x10\xa2a@'
p419
tp420
Rp421
sg70
g53
(g54
g55
Ntp422
Rp423
(dp424
g59
I0
sg60
g53
(g61
g55
Ntp425
Rp426
(dp427
g60
Nsg65
I00
sg66
g5
(g9
S'\x00\x00\x00\x00\x00\x00\xf0?'
p428
tp429
Rp430
sg70
Nsbsg71
g86
sg73
g5
(g9
S'\xa3\xbdR\xcb4\xe8Z@'
p431
tp432
Rp433
sg70
g53
(g61
g55
Ntp434
Rp435
(dp436
g60
Nsg65
I00
sg66
g5
(g9
S'\xf4l)\xc1[\xe7\xb6?'
p437
tp438
Rp439
sg70
Nsbsg65
I01
sbsg65
I01
sbsg96
(lp440
g411
ag423
ag435
ag426
ag414
asg98
I5
sbag408
ag408
ag408
ag408
ag408
a(iptreeopt.tree
PTree
p441
(dp442
g52
g53
(g54
g55
Ntp443
Rp444
(dp445
g59
I1
sg60
g53
(g61
g55
Ntp446
Rp447
(dp448
g60
Nsg65
I00
sg66
g5
(g9
S'\x00\x00\x00\x00\x00\x00\x00\x00'
p449
tp450
Rp451
sg70
Nsbsg71
g72
sg73
g5
(g9
S'w\xbb\xcc\x05\x9f\xbba@'
p452
tp453
Rp454
sg70
g53
(g54
g55
Ntp455
Rp456
(dp457
g59
I0
sg60
g53
(g61
g55
Ntp458
Rp459
(dp460
g60
Nsg65
I00
sg66
g5
(g9
S'\x00\x00\x00\x00\x00\x00\xf0?'
p461
tp462
Rp463
sg70
Nsbsg71
g86
sg73
g5
(g9
S'\xdb\x15\xb6\x91\xcc\x85Z@'
p464
tp465
Rp466
sg70
g53
(g61
g55
Ntp467
Rp468
(dp469
g60
Nsg65
I00
sg66
g5
(g9
S'"\xd0q\xa1\x04U\xba?'
p470
tp471
Rp472
sg70
Nsbsg65
I01
sbsg65
I01
sbsg96
(lp473
g444
ag456
ag468
ag459
ag447
asg98
I5
sbag441
ag441
ag441
ag441
ag441
ag441
ag441
ag441
ag441
asS'time'
p474
(lp475
I29
aI60
aI91
aI122
aI152
aI182
aI213
aI243
aI273
aI304
aI334
aI365
aI396
aI427
aI457
aI487
aI517
aI548
aI580
aI613
aI644
aI676
aI707
aI738
aI768
aI799
aI830
aI860
aI890
aI920
aI951
aI981
aI1012
aI1042
aI1072
aI1102
aI1132
aI1163
aI1193
aI1224
aI1254
aI1284
aI1314
aI1345
aI1375
aI1405
aI1435
aI1465
aI1496
aI1526
aI1556
aI1587
aI1617
aI1648
aI1678
aI1708
aI1738
aI1768
aI1799
aI1829
aI1859
aI1889
aI1919
aI1950
aI1980
aI2010
aI2041
aI2071
aI2101
aI2131
aI2161
aI2191
aI2222
aI2253
aI2283
aI2314
aI2345
aI2376
aI2406
aI2437
aI2467
aI2498
aI2529
aI2560
aI2590
aI2620
aI2650
aI2681
aI2711
aI2740
aI2771
aI2800
aI2830
aI2860
aI2890
aI2920
aI2951
aI2981
aI3011
as.